******************************************************************************
                  TI ARM Linker Unix v5.2.5                    
******************************************************************************
>> Linked Tue Apr  4 15:35:58 2017

OUTPUT FILE NAME:   <subscribe_publish_sample.out>
ENTRY POINT SYMBOL: "_c_int00"  address: 2001a08d


MEMORY CONFIGURATION

         name            origin    length      used     unused   attr    fill
----------------------  --------  ---------  --------  --------  ----  --------
  SRAM                  20004000   0003c000  000279bc  00014644  RW X


SEGMENT ALLOCATION MAP

run origin  load origin   length   init length attrs members
----------  ----------- ---------- ----------- ----- -------
20004000    20004000    00019f12   00019f12    r-x
  20004000    20004000    0000030c   0000030c    r-- .resetVecs
  20004310    20004310    00019c02   00019c02    r-x .text
2001e000    2001e000    0000b293   00000000    rw-
  2001e000    2001e000    0000b293   00000000    rw- .bss
20029294    20029294    000013f3   000013f3    r--
  20029294    20029294    000013f3   000013f3    r-- .const
2002a688    2002a688    00000ed0   00000000    rw-
  2002a688    2002a688    00000ad0   00000000    rw- .data
  2002b158    2002b158    00000400   00000000    rw- .stack
2002b558    2002b558    00000558   00000558    r--
  2002b558    2002b558    00000558   00000558    r-- .cinit


SECTION ALLOCATION MAP

 output                                  attributes/
section   page    origin      length       input sections
--------  ----  ----------  ----------   ----------------
.text      0    20004310    00019c02     
                  20004310    000012d4     subscribe_publish_sample.o (.text:runAWSClient)
                  200055e4    000010a6     rtsv7M4_T_le_eabi.lib : _printfi.obj (.text)
                  2000668a    00000002     drivers_cc32xxware.aem4 : SPICC3200DMA.oem4 (.text:SPICC3200DMA_serviceISR)
                  2000668c    00000f80     subscribe_publish_sample.o (.text:dexterpicontroller)
                  2000760c    00000778     subscribe_publish_sample.o (.text:dynamic_power_1)
                  20007d84    000005f8     ota.a : OtaHttp.obj (.text)
                  2000837c    000005f8     subscribe_publish_sample.o (.text:vinayudp)
                  20008974    000005a2     subscribe_publish_sample.o (.text:readResponse)
                  20008f16    00000002     drivers_cc32xxware.aem4 : SPICC3200DMA.oem4 (.text:SPICC3200DMA_transferCancel)
                  20008f18    00000498     subscribe_publish_sample.o (.text:ParseJSONData)
                  200093b0    00000450     subscribe_publish_sample.o (.text:HTTPPostMethodon)
                  20009800    00000430     sysbios.aem4 : BIOS.obj (.text:ti_sysbios_family_arm_m3_Hwi_excDumpRegs__I)
                  20009c30    0000042c     ota.a : OtaClient.obj (.text)
                  2000a05c    000003fc           : OtaApp.obj (.text)
                  2000a458    000003d0     sntp_sl.aem4 : sntp.oem4 (.text:syncTime)
                  2000a828    0000039a     cc3x00_host_driver.aem4 : driver.oem4 (.text:_SlDrvMsgRead)
                  2000abc2    00000002     rtsv7M4_T_le_eabi.lib : i_div0.obj (.text)
                  2000abc4    00000388     sntp_sl.aem4 : sntp.oem4 (.text:SNTP_start)
                  2000af4c    0000035c     ota.a : CdnClient.obj (.text)
                  2000b2a8    0000034c     ti.targets.arm.rtsarm.aem4 : System.oem4 (.text:xdc_runtime_System_doPrint__I)
                  2000b5f4    00000334     ota.a : LogClient.obj (.text)
                  2000b928    00000324     subscribe_publish_sample.o (.text:HTTPPostMethod)
                  2000bc4c    0000030c     rtsv7M4_T_le_eabi.lib : lowlev.obj (.text)
                  2000bf58    000002d8     aws_iot_sl.aem4 : jsmn.o (.text:jsmn_parse)
                  2000c230    000002d4     rtsv7M4_T_le_eabi.lib : trgdrv.obj (.text)
                  2000c504    000002a8                           : mktime.obj (.text)
                  2000c7ac    00000298                           : vla_alloc.obj (.text)
                  2000ca44    0000027c     netwifi.o (.text:NetWiFi_init)
                  2000ccc0    00000268     netwifi.o (.text:setStationMode)
                  2000cf28    00000214     subscribe_publish_sample.o (.text:updateota)
                  2000d13c    00000208     drivers_cc32xxware.aem4 : UARTCC3200.oem4 (.text:UARTCC3200_open)
                  2000d344    00000204     main.o (.text:slTask)
                  2000d548    000001fc     sysbios.aem4 : BIOS.obj (.text:ti_sysbios_family_arm_m3_Hwi_excHandlerMax__I)
                  2000d744    000001f4     rtsv7M4_T_le_eabi.lib : ull_div_t2.obj (.text)
                  2000d938    000001f0     aws_iot_sl.aem4 : aws_iot_mqtt_client_connect.o (.text:_aws_iot_mqtt_serialize_connect)
                  2000db28    000001ce                     : aws_iot_mqtt_client_common_internal.o (.text:aws_iot_mqtt_internal_init_header)
                  2000dcf6    00000002     subscribe_publish_sample_pem4.oem4 (.text:ti_sysbios_BIOS_nullFunc__I)
                  2000dcf8    000001c4     rtsv7M4_T_le_eabi.lib : fopen.obj (.text)
                  2000debc    000001bc     startsntp.o (.text:startNTP)
                  2000e078    000001b8     subscribe_publish_sample.o (.text:philipsconfig)
                  2000e230    000001b6     rtsv7M4_T_le_eabi.lib : fd_add_t2.obj (.text)
                  2000e3e6    00000002     subscribe_publish_sample_pem4.oem4 (.text:xdc_runtime_Startup_reset__I)
                  2000e3e8    000001a8     subscribe_publish_sample.o (.text:disconnectCallbackHandler)
                  2000e590    000001a8     cc3x00_host_driver.aem4 : wlan.oem4 (.text:sl_WlanConnect)
                  2000e738    000001a1     subscribe_publish_sample.o (.text:flashFiledevice)
                  2000e8d9    00000001     --HOLE-- [fill = 0]
                  2000e8da    00000198     subscribe_publish_sample.o (.text:bufferedRecv)
                  2000ea72    00000002     ti.targets.arm.rtsarm.aem4 : SysCallback.oem4 (.text:xdc_runtime_SysCallback_defaultExit)
                  2000ea74    00000190     subscribe_publish_sample.o (.text:power)
                  2000ec04    00000188     subscribe_publish_sample.o (.text:OTAServerInfoSet)
                  2000ed8c    00000188     power_cc3200_tirtos.aem4 : PowerCC3200_tirtos.oem4 (.text:PowerCC3200_sleepPolicy)
                  2000ef14    00000184     flc.a : flc.obj (.text)
                  2000f098    00000180     subscribe_publish_sample.o (.text:HTTPPutMethodon)
                  2000f218    0000017c     drivers_cc32xxware.aem4 : GPIOCC3200.oem4 (.text:GPIO_setConfig)
                  2000f394    00000178     subscribe_publish_sample.o (.text:HTTPPutMethod)
                  2000f50c    00000176     aws_iot_sl.aem4 : jsmn.o (.text:jsmn_parse_string)
                  2000f682    00000174     subscribe_publish_sample.o (.text:HTTPCli_getResponseField)
                  2000f7f6    00000002     ti.targets.arm.rtsarm.aem4 : SysCallback.oem4 (.text:xdc_runtime_SysCallback_defaultFlush)
                  2000f7f8    00000174     sysbios.aem4 : BIOS.obj (.text:ti_sysbios_family_arm_m3_Hwi_excBusFault__I)
                  2000f96c    00000004     tirtosport.aem4 : ClockP_tirtos.oem4 (.text:ClockP_getCpuFreq)
                  2000f970    00000164     sysbios.aem4 : BIOS.obj (.text:ti_sysbios_family_arm_m3_Hwi_excUsageFault__I)
                  2000fad4    00000004     tirtosport.aem4 : HwiP_tirtos.oem4 (.text:HwiP_clearInterrupt)
                  2000fad8    00000158     sysbios.aem4 : BIOS.obj (.text:ti_sysbios_knl_Semaphore_pend__E)
                  2000fc30    00000154     rom_pin_mux_config.o (.text:PinMuxConfig)
                  2000fd84    00000154     drivers_cc32xxware.aem4 : SPICC3200DMA.oem4 (.text:SPICC3200DMA_transfer)
                  2000fed8    00000154     aws_iot_sl.aem4 : aws_iot_mqtt_client_common_internal.o (.text:_aws_iot_mqtt_internal_read_packet)
                  2001002c    00000150     subscribe_publish_sample.o (.text:HTTPCli_connect)
                  2001017c    00000150     cc3x00_host_driver.aem4 : driver.oem4 (.text:_SlDrvRxHdrRead)
                  200102cc    00000150     aws_iot_sl.aem4 : aws_iot_mqtt_client.o (.text:aws_iot_mqtt_init)
                  2001041c    00000004     tirtosport.aem4 : HwiP_tirtos.oem4 (.text:HwiP_disable)
                  20010420    00000150     sysbios.aem4 : BIOS.obj (.text:ti_sysbios_knl_Event_pend__E)
                  20010570    00000148                  : BIOS.obj (.text:ti_sysbios_family_arm_m3_Hwi_excMemFault__I)
                  200106b8    00000140     aws_iot_sl.aem4 : aws_iot_mqtt_client_subscribe.o (.text:_aws_iot_mqtt_internal_subscribe)
                  200107f8    00000140     subscribe_publish_sample.o (.text:philiphsidread)
                  20010938    00000136     rtsv7M4_T_le_eabi.lib : fd_div_t2.obj (.text)
                  20010a6e    00000002     --HOLE-- [fill = 0]
                  20010a70    00000134     driverlib.a : prcm.obj (.text:PRCMCC3200MCUInit)
                  20010ba4    00000134     rtsv7M4_T_le_eabi.lib : fputs.obj (.text)
                  20010cd8    00000130     aws_iot_sl.aem4 : aws_iot_mqtt_client_connect.o (.text:_aws_iot_mqtt_deserialize_connack)
                  20010e08    00000130     subscribe_publish_sample.o (.text:getChunkedData)
                  20010f38    0000012a     aws_iot_sl.aem4 : network_sl.o (.text:iot_tls_connect)
                  20011062    00000002     --HOLE-- [fill = 0]
                  20011064    00000124     drivers_cc32xxware.aem4 : SPICC3200DMA.oem4 (.text:SPICC3200DMA_open)
                  20011188    00000120     aws_iot_sl.aem4 : aws_iot_mqtt_client_connect.o (.text:_aws_iot_mqtt_internal_connect)
                  200112a8    00000118     cc3x00_host_driver.aem4 : driver.oem4 (.text:_SlDrvMsgWrite)
                  200113c0    00000118     ti.targets.arm.rtsarm.aem4 : Error.oem4 (.text:xdc_runtime_Error_policyDefault__E)
                  200114d8    00000114     rtsv7M4_T_le_eabi.lib : strtoul.obj (.text)
                  200115ec    00000110                           : xdscale.obj (.text)
                  200116fc    0000010e     aws_iot_sl.aem4 : aws_iot_mqtt_client_subscribe.o (.text:_aws_iot_mqtt_internal_resubscribe)
                  2001180a    00000002     --HOLE-- [fill = 0]
                  2001180c    00000104     UARTUtils.o (.text:openHandle)
                  20011910    00000100     aws_iot_sl.aem4 : aws_iot_mqtt_client_subscribe.o (.text:_aws_iot_mqtt_serialize_subscribe)
                  20011a10    00000100                     : aws_iot_mqtt_client_publish.o (.text:aws_iot_mqtt_internal_deserialize_publish)
                  20011b10    00000100     subscribe_publish_sample.o (.text:deviceidread)
                  20011c10    00000100     ti.targets.arm.rtsarm.aem4 : Core-mem.oem4 (.text:xdc_runtime_Core_createObject__I)
                  20011d10    000000fc     rtsv7M4_T_le_eabi.lib : fd_mul_t2.obj (.text)
                  20011e0c    000000f8     ti.targets.arm.rtsarm.aem4 : Startup.oem4 (.text:xdc_runtime_Startup_startMods__I)
                  20011f04    000000f8     subscribe_publish_sample_pem4.oem4 (.text:xdc_runtime_System_printfExtend__I)
                  20011ffc    000000f0     driverlib.a : udma.obj (.text:uDMAChannelTransferSet)
                  200120ec    000000ec     cc3x00_host_driver.aem4 : driver.oem4 (.text:_SlDrvDriverCBInit)
                  200121d8    000000ec     aws_iot_sl.aem4 : aws_iot_mqtt_client_subscribe.o (.text:_aws_iot_mqtt_deserialize_suback)
                  200122c4    000000ea                     : aws_iot_mqtt_client_common_internal.o (.text:_aws_iot_mqtt_internal_deliver_message)
                  200123ae    000000ea                     : aws_iot_mqtt_client_publish.o (.text:_aws_iot_mqtt_internal_publish)
                  20012498    000000e4     subscribe_publish_sample.o (.text:ConnectToHTTPServer)
                  2001257c    000000e4     subscribe_publish_sample.o (.text:HTTPCli_sendRequest)
                  20012660    000000e0     cc3x00_host_driver.aem4 : driver.oem4 (.text:_SlDrvDataReadOp)
                  20012740    000000e0     aws_iot_sl.aem4 : aws_iot_mqtt_client_publish.o (.text:_aws_iot_mqtt_internal_serialize_publish)
                  20012820    000000dc     network_sl.aem4 : tls_sl.oem4 (.text:TLS_create)
                  200128fc    000000dc     aws_iot_sl.aem4 : aws_iot_mqtt_client_yield.o (.text:_aws_iot_mqtt_internal_yield)
                  200129d8    000000dc     rtsv7M4_T_le_eabi.lib : setvbuf.obj (.text)
                  20012ab4    000000d8     subscribe_publish_sample.o (.text:FlushHTTPResponse)
                  20012b8c    000000d8     drivers_cc32xxware.aem4 : SPICC3200DMA.oem4 (.text:configDMA)
                  20012c64    000000d4     cc3x00_host_driver.aem4 : socket.oem4 (.text:sl_Select)
                  20012d38    000000d4     sysbios.aem4 : BIOS.obj (.text:ti_sysbios_knl_Mailbox_Instance_init__E)
                  20012e0c    000000d0     cc3x00_host_driver.aem4 : driver.oem4 (.text:_SlDrvWaitForPoolObj)
                  20012edc    000000d0     aws_iot_sl.aem4 : jsmn.o (.text:jsmn_parse_primitive)
                  20012fac    000000d0     drivers_cc32xxware.aem4 : GPIOCC3200.oem4 (.text:powerNotifyFxn)
                  2001307c    000000d0     sysbios.aem4 : m3_Hwi_asm.obj (.text:ti_sysbios_family_arm_m3_Hwi_dispatch__I)
                  2001314c    00000004     drivers_cc32xxware.aem4 : List.oem4 (.text:List_head)
                  20013150    000000cc     sysbios.aem4 : BIOS.obj (.text:ti_sysbios_heaps_HeapMem_alloc__E)
                  2001321c    00000004     drivers_cc32xxware.aem4 : List.oem4 (.text:List_next)
                  20013220    000000cc     sysbios.aem4 : BIOS.obj (.text:ti_sysbios_knl_Task_Instance_init__E)
                  200132ec    000000cc     ti.targets.arm.rtsarm.aem4 : Core-smem.oem4 (.text:xdc_runtime_Core_constructObject__I)
                  200133b8    000000c8     subscribe_publish_sample.o (.text:HTTPGetMethod)
                  20013480    000000c8     cc3x00_host_driver.aem4 : driver.oem4 (.text:_SlDrvReleasePoolObj)
                  20013548    000000c8     aws_iot_sl.aem4 : aws_iot_mqtt_client_common_internal.o (.text:_aws_iot_mqtt_internal_handle_publish)
                  20013610    000000c8     rtsv7M4_T_le_eabi.lib : fflush.obj (.text)
                  200136d8    000000c4     cc3x00_host_driver.aem4 : socket.oem4 (.text:sl_RecvFrom)
                  2001379c    000000c2     aws_iot_sl.aem4 : aws_iot_mqtt_client_common_internal.o (.text:_aws_iot_mqtt_internal_is_topic_matched)
                  2001385e    000000c0     network_sl.aem4 : ssock_sl.oem4 (.text:Ssock_startTLS)
                  2001391e    00000002     --HOLE-- [fill = 0]
                  20013920    000000c0     aws_iot_sl.aem4 : aws_iot_mqtt_client_publish.o (.text:aws_iot_mqtt_internal_deserialize_ack)
                  200139e0    000000c0                     : aws_iot_mqtt_client.o (.text:aws_iot_mqtt_set_connect_params)
                  20013aa0    000000c0     sysbios.aem4 : BIOS.obj (.text:ti_sysbios_knl_Task_sleep__E)
                  20013b60    000000be     rtsv7M4_T_le_eabi.lib : xdnorm.obj (.text)
                  20013c1e    00000002     --HOLE-- [fill = 0]
                  20013c20    000000bc     network_sl.aem4 : tls_sl.oem4 (.text:createTLSContext)
                  20013cdc    000000bc     cc3x00_host_driver.aem4 : socket.oem4 (.text:sl_SendTo)
                  20013d98    000000bc     sysbios.aem4 : BIOS.obj (.text:ti_sysbios_family_arm_m3_Hwi_excDebugMon__I)
                  20013e54    00000004     network_sl.aem4 : ssock.oem4 (.text:Ssock_getSocket)
                  20013e58    000000bc     sysbios.aem4 : BIOS.obj (.text:ti_sysbios_family_arm_m3_Hwi_excHardFault__I)
                  20013f14    00000004     drivers_wifi_cc32xxware.aem4 : osi_tirtos.oem4 (.text:mem_Malloc)
                  20013f18    000000bc     sysbios.aem4 : BIOS.obj (.text:ti_sysbios_knl_Task_Instance_finalize__E)
                  20013fd4    000000b8     aws_iot_sl.aem4 : aws_iot_mqtt_client.o (.text:aws_iot_mqtt_is_client_connected)
                  2001408c    000000b8     subscribe_publish_sample.o (.text:readLine)
                  20014144    000000b8     cc3x00_host_driver.aem4 : netapp.oem4 (.text:sl_NetAppDnsGetHostByName)
                  200141fc    000000b6     network_sl.aem4 : ssock.oem4 (.text:Ssock_send)
                  200142b2    000000b6     aws_iot_sl.aem4 : aws_iot_mqtt_client_subscribe.o (.text:aws_iot_mqtt_subscribe)
                  20014368    000000b4     subscribe_publish_sample.o (.text:MQTTcallbackHandler)
                  2001441c    000000b4     cc3x00_host_driver.aem4 : netapp.oem4 (.text:_SlDrvNetAppEventHandler)
                  200144d0    000000b4     aws_iot_sl.aem4 : aws_iot_mqtt_client_yield.o (.text:_aws_iot_mqtt_keep_alive)
                  20014584    00000004     rtsv7M4_T_le_eabi.lib : error.obj (.text)
                  20014588    000000b4     sysbios.aem4 : BIOS.obj (.text:ti_sysbios_knl_Task_checkStacks__E)
                  2001463c    000000b0     aws_iot_sl.aem4 : aws_iot_mqtt_client_publish.o (.text:aws_iot_mqtt_publish)
                  200146ec    000000b0     cc3x00_host_driver.aem4 : socket.oem4 (.text:sl_Connect)
                  2001479c    000000ae     aws_iot_sl.aem4 : aws_iot_mqtt_client_yield.o (.text:aws_iot_mqtt_yield)
                  2001484a    00000002     --HOLE-- [fill = 0]
                  2001484c    000000ac     cc3x00_host_driver.aem4 : driver.oem4 (.text:_SlDrvDataWriteOp)
                  200148f8    000000ac     rtsv7M4_T_le_eabi.lib : _io_perm.obj (.text)
                  200149a4    000000aa     network_sl.aem4 : certconv.oem4 (.text:CertConv_pem2der)
                  20014a4e    000000a6     aws_iot_sl.aem4 : network_sl.o (.text:iot_tls_read)
                  20014af4    000000a4                     : aws_iot_mqtt_client_publish.o (.text:aws_iot_mqtt_internal_serialize_ack)
                  20014b98    000000a4     rtsv7M4_T_le_eabi.lib : asctime.obj (.text)
                  20014c3c    000000a4     cc3x00_host_driver.aem4 : socket.oem4 (.text:sl_Send)
                  20014ce0    000000a2     drivers_cc32xxware.aem4 : UARTCC3200.oem4 (.text:UARTCC3200_write)
                  20014d82    00000002     --HOLE-- [fill = 0]
                  20014d84    000000a0     driverlib.a : spi.obj (.text:SPIConfigSetExpClk)
                  20014e24    000000a0     auto_init.aem4 : auto_init.oem4 (.text)
                  20014ec4    000000a0     ti.targets.arm.rtsarm.aem4 : Text.oem4 (.text:xdc_runtime_Text_putMod__E)
                  20014f64    0000009e     drivers_cc32xxware.aem4 : UARTCC3200.oem4 (.text:readTaskBlocking)
                  20015002    00000002     --HOLE-- [fill = 0]
                  20015004    0000009c     aws_iot_sl.aem4 : timer.o (.text:countdown_ms)
                  200150a0    0000009c     rtsv7M4_T_le_eabi.lib : memcpy_t2.obj (.text)
                  2001513c    00000004     subscribe_publish_sample_pem4.oem4 (.text:ti_sysbios_BIOS_RtsGateProxy_enter__E)
                  20015140    0000009c     sysbios.aem4 : BIOS.obj (.text:ti_sysbios_knl_Task_postInit__I)
                  200151dc    0000009a     ti.targets.arm.rtsarm.aem4 : Text.oem4 (.text:xdc_runtime_Text_putSite__E)
                  20015276    00000098     drivers_cc32xxware.aem4 : UARTCC3200.oem4 (.text:UARTCC3200_control)
                  2001530e    00000098                             : UARTCC3200.oem4 (.text:UARTCC3200_readPolling)
                  200153a6    00000002     --HOLE-- [fill = 0]
                  200153a8    00000098     cc3x00_host_driver.aem4 : driver.oem4 (.text:_SlDrvMsgReadCmdCtx)
                  20015440    00000098     aws_iot_sl.aem4 : aws_iot_mqtt_client_common_internal.o (.text:aws_iot_mqtt_internal_cycle_read)
                  200154d8    00000098     subscribe_publish_sample.o (.text:getStatus)
                  20015570    00000098     rtsv7M4_T_le_eabi.lib : fclose.obj (.text)
                  20015608    00000098                           : fputc.obj (.text)
                  200156a0    00000098     cc3x00_host_driver.aem4 : device.oem4 (.text:sl_Stop)
                  20015738    00000098     subscribe_publish_sample.o (.text:xassert)
                  200157d0    00000096     aws_iot_sl.aem4 : aws_iot_mqtt_client_yield.o (.text:_aws_iot_mqtt_handle_reconnect)
                  20015866    00000002     --HOLE-- [fill = 0]
                  20015868    00000094     driverlib.a : prcm.obj (.text:PRCMPeripheralClockGet)
                  200158fc    00000094     cc3x00_host_driver.aem4 : driver.oem4 (.text:_SlFindAndSetActiveObj)
                  20015990    00000094     aws_iot_sl.aem4 : timer.o (.text:countdown_sec)
                  20015a24    00000094     drivers_cc32xxware.aem4 : SPICC3200DMA.oem4 (.text:initHw)
                  20015ab8    00000094     sysbios.aem4 : BIOS.obj (.text:ti_sysbios_family_arm_m3_Hwi_Instance_init__E)
                  20015b4c    00000092     rtsv7M4_T_le_eabi.lib : fs_div_t2.obj (.text)
                  20015bde    00000002     --HOLE-- [fill = 0]
                  20015be0    00000090     cc3x00_host_driver.aem4 : driver.oem4 (.text:_SlDrvDriverCBDeinit)
                  20015c70    00000090     drivers_cc32xxware.aem4 : PowerCC3200.oem4 (.text:restoreNVICRegs)
                  20015d00    00000090     cc3x00_host_driver.aem4 : device.oem4 (.text:sl_Start)
                  20015d90    00000090     netwifi.o (.text:smartConfigFxn)
                  20015e20    0000008c     subscribe_publish_sample.o (.text:HTTPCli_readResponseBody)
                  20015eac    0000008c     UARTUtils.o (.text:UARTUtils_systemInit)
                  20015f38    0000008c     aws_iot_sl.aem4 : aws_iot_mqtt_client_connect.o (.text:_aws_iot_mqtt_internal_disconnect)
                  20015fc4    00000004     subscribe_publish_sample_pem4.oem4 (.text:ti_sysbios_BIOS_RtsGateProxy_leave__E)
                  20015fc8    0000008c     sysbios.aem4 : BIOS.obj (.text:ti_sysbios_knl_Event_post__E)
                  20016054    0000008a     aws_iot_sl.aem4 : aws_iot_mqtt_client_common_internal.o (.text:aws_iot_mqtt_internal_send_packet)
                  200160de    0000008a     drivers_cc32xxware.aem4 : UARTCC3200.oem4 (.text:readIsrTextBlocking)
                  20016168    00000088     driverlib.a : prcm.obj (.text:PRCMHibernateIntervalSet)
                  200161f0    00000088                 : pin.obj (.text:PinConfigSet)
                  20016278    00000088     drivers_cc32xxware.aem4 : UARTCC3200.oem4 (.text:UARTCC3200_close)
                  20016300    00000088     aws_iot_sl.aem4 : aws_iot_mqtt_client_common_internal.o (.text:aws_iot_mqtt_internal_wait_for_read)
                  20016388    00000088     cc3x00_host_driver.aem4 : fs.oem4 (.text:sl_FsRead)
                  20016410    00000088                             : fs.oem4 (.text:sl_FsWrite)
                  20016498    00000088     drivers_cc32xxware.aem4 : SPICC3200DMA.oem4 (.text:spiHwiFxn)
                  20016520    00000088     sysbios.aem4 : BIOS.obj (.text:ti_sysbios_family_arm_m3_Hwi_initNVIC__E)
                  200165a8    00000088                  : BIOS.obj (.text:ti_sysbios_knl_Mailbox_post__E)
                  20016630    00000086     rtsv7M4_T_le_eabi.lib : fd_cmp_t2.obj (.text:__aeabi_cdcmple)
                  200166b6    00000086                           : fd_cmp_t2.obj (.text:__aeabi_cdrcmple)
                  2001673c    00000084     drivers_cc32xxware.aem4 : GPIOCC3200.oem4 (.text:GPIO_init)
                  200167c0    00000084     aws_iot_sl.aem4 : aws_iot_mqtt_client_connect.o (.text:aws_iot_mqtt_connect)
                  20016844    00000084                     : aws_iot_mqtt_client_common_internal.o (.text:aws_iot_mqtt_internal_serialize_zero)
                  200168c8    00000084                     : network_sl.o (.text:iot_tls_init)
                  2001694c    00000084     drivers_cc32xxware.aem4 : PowerCC3200.oem4 (.text:saveNVICRegs)
                  200169d0    00000084     sysbios.aem4 : BIOS.obj (.text:ti_sysbios_family_arm_m3_Hwi_postInit__I)
                  20016a54    00000082     driverlib.a : gpio.obj (.text:GPIOIntTypeSet)
                  20016ad6    00000082     drivers_cc32xxware.aem4 : UARTCC3200.oem4 (.text:readIsrTextCallback)
                  20016b58    00000080     drivers_wifi_cc32xxware.aem4 : WiFiCC3200.oem4 (.text:WiFiCC3200_open)
                  20016bd8    00000080     aws_iot_sl.aem4 : aws_iot_mqtt_client_connect.o (.text:_aws_iot_mqtt_is_client_state_valid_for_connect)
                  20016c58    0000007c     driverlib.a : spi.obj (.text:SPIIntStatus)
                  20016cd4    0000007c     aws_iot_sl.aem4 : aws_iot_mqtt_client_common_internal.o (.text:_aws_iot_mqtt_internal_decode_packet_remaining_len)
                  20016d50    0000007c     subscribe_publish_sample.o (.text:checkContentField)
                  20016dcc    0000007c     cc3x00_host_driver.aem4 : netcfg.oem4 (.text:sl_NetCfgGet)
                  20016e48    0000007c     sysbios.aem4 : BIOS.obj (.text:ti_sysbios_heaps_HeapMem_free__E)
                  20016ec4    0000007c     netwifi.o (.text:wlanConnect)
                  20016f40    0000007a     drivers_cc32xxware.aem4 : UARTCC3200.oem4 (.text:readTaskCallback)
                  20016fba    0000007a     rtsv7M4_T_le_eabi.lib : fs_mul_t2.obj (.text)
                  20017034    0000007a                           : memset_t2.obj (.text)
                  200170ae    00000002     --HOLE-- [fill = 0]
                  200170b0    00000078     drivers_wifi_cc32xxware.aem4 : osi_tirtos.oem4 (.text:VStartSimpleLinkSpawnTask)
                  20017128    00000078     aws_iot_sl.aem4 : aws_iot_mqtt_client_subscribe.o (.text:aws_iot_mqtt_resubscribe)
                  200171a0    00000078     main.o (.text:main)
                  20017218    00000076     driverlib.a : uart.obj (.text:UARTConfigSetExpClk)
                  2001728e    00000002     --HOLE-- [fill = 0]
                  20017290    00000074     cc3x00_host_driver.aem4 : driver.oem4 (.text:_SlDrvClassifyRxMsg)
                  20017304    00000074     subscribe_publish_sample.o (.text:sprsend)
                  20017378    00000074     sysbios.aem4 : BIOS.obj (.text:ti_sysbios_knl_Mailbox_pend__E)
                  200173ec    00000071     network_sl.aem4 : tls_sl.oem4 (.text:getDirPath)
                  2001745d    00000003     --HOLE-- [fill = 0]
                  20017460    00000070     drivers_cc32xxware.aem4 : PowerCC3200.oem4 (.text:Power_sleep)
                  200174d0    00000070     cc3x00_host_driver.aem4 : driver.oem4 (.text:_SlDrvCmdOp)
                  20017540    00000070     rtsv7M4_T_le_eabi.lib : printf.obj (.text)
                  200175b0    00000070     cc3x00_host_driver.aem4 : fs.oem4 (.text:sl_FsClose)
                  20017620    00000070                             : wlan.oem4 (.text:sl_WlanSmartConfigStart)
                  20017690    00000070     sysbios.aem4 : BIOS.obj (.text:ti_sysbios_knl_Mailbox_Instance_finalize__E)
                  20017700    00000070                  : BIOS.obj (.text:ti_sysbios_knl_Semaphore_post__E)
                  20017770    0000006d     ti.targets.arm.rtsarm.aem4 : System.oem4 (.text:xdc_runtime_System_formatNum__I)
                  200177dd    00000003     --HOLE-- [fill = 0]
                  200177e0    0000006c     cc3x00_host_driver.aem4 : driver.oem4 (.text:_SlDrvMsgReadSpawnCtx)
                  2001784c    0000006c     drivers_cc32xxware.aem4 : UARTCC3200.oem4 (.text:initHw)
                  200178b8    0000006c     rtsv7M4_T_le_eabi.lib : fprintf.obj (.text)
                  20017924    00000004     subscribe_publish_sample_pem4.oem4 (.text:ti_sysbios_family_arm_m3_Hwi_destruct)
                  20017928    0000006c     sysbios.aem4 : BIOS.obj (.text:ti_sysbios_family_arm_cc32xx_Seconds_getCount__I)
                  20017994    00000004     subscribe_publish_sample_pem4.oem4 (.text:ti_sysbios_family_arm_m3_TaskSupport_Module__startupDone__S)
                  20017998    0000006c     sysbios.aem4 : BIOS.obj (.text:ti_sysbios_knl_Clock_workFunc__E)
                  20017a04    00000004     subscribe_publish_sample_pem4.oem4 (.text:ti_sysbios_heaps_HeapMem_Module_GateProxy_enter__E)
                  20017a08    0000006c     sysbios.aem4 : BIOS.obj (.text:ti_sysbios_knl_Swi_restoreHwi__E)
                  20017a74    00000004     subscribe_publish_sample_pem4.oem4 (.text:ti_sysbios_heaps_HeapMem_Module_GateProxy_leave__E)
                  20017a78    0000006c     sysbios.aem4 : BIOS.obj (.text:ti_sysbios_knl_Task_exit__E)
                  20017ae4    0000006c     ti.targets.arm.rtsarm.aem4 : Error.oem4 (.text:xdc_runtime_Error_print__E)
                  20017b50    0000006c                                : Memory.oem4 (.text:xdc_runtime_Memory_alloc__E)
                  20017bbc    0000006a     rtsv7M4_T_le_eabi.lib : copy_decompress_rle.obj (.text)
                  20017c26    0000006a     sntp_sl.aem4 : sntp.oem4 (.text:socketSetup)
                  20017c90    00000068     driverlib.a : prcm.obj (.text:PRCMHibernateWakeUpGPIOSelect)
                  20017cf8    00000068     cc3x00_host_driver.aem4 : fs.oem4 (.text:_sl_GetCreateFsMode)
                  20017d60    00000068     aws_iot_sl.aem4 : aws_iot_mqtt_client_connect.o (.text:aws_iot_mqtt_disconnect)
                  20017dc8    00000068     rtsv7M4_T_le_eabi.lib : trgmsg.obj (.text)
                  20017e30    00000068     drivers_wifi_cc32xxware.aem4 : WiFiCC3200.oem4 (.text:spi_Read)
                  20017e98    00000068                                  : WiFiCC3200.oem4 (.text:spi_Write)
                  20017f00    00000068     drivers_cc32xxware.aem4 : UARTCC3200.oem4 (.text:writeData)
                  20017f68    00000067     subscribe_publish_sample.o (.text:HTTPCli_sendField)
                  20017fcf    00000001     --HOLE-- [fill = 0]
                  20017fd0    00000066     rtsv7M4_T_le_eabi.lib : xdunscal.obj (.text)
                  20018036    00000066     ti.targets.arm.rtsarm.aem4 : Core-mem.oem4 (.text:xdc_runtime_Core_deleteObject__I)
                  2001809c    00000064     drivers_cc32xxware.aem4 : GPIOCC3200.oem4 (.text:GPIO_hwiIntFxn)
                  20018100    00000064     cc3x00_host_driver.aem4 : netapp.oem4 (.text:_sl_HandleAsync_DnsGetHostByName)
                  20018164    00000064     aws_iot_sl.aem4 : aws_iot_mqtt_client_common_internal.o (.text:aws_iot_mqtt_internal_decode_remaining_length_from_buffer)
                  200181c8    00000064     rtsv7M4_T_le_eabi.lib : fseek.obj (.text)
                  2001822c    00000004     subscribe_publish_sample_pem4.oem4 (.text:ti_sysbios_knl_Clock_TimerProxy_getMaxTicks__E)
                  20018230    00000064     sysbios.aem4 : BIOS.obj (.text:ti_sysbios_family_arm_m3_Hwi_dispatchC__I)
                  20018294    00000064     subscribe_publish_sample_pem4.oem4 (.text:ti_sysbios_knl_Mailbox_create)
                  200182f8    00000064     driverlib.a : udma.obj (.text:uDMAChannelAttributeDisable)
                  2001835c    00000062     tirtosport.aem4 : HwiP_tirtos.oem4 (.text:HwiP_create)
                  200183be    00000060     rtsv7M4_T_le_eabi.lib : fs_cmp_t2.obj (.text:__aeabi_cfcmple)
                  2001841e    00000060                           : fs_cmp_t2.obj (.text:__aeabi_cfrcmple)
                  2001847e    00000002     --HOLE-- [fill = 0]
                  20018480    00000060     cc3x00_host_driver.aem4 : netapp.oem4 (.text:_sl_HandleAsync_DnsGetHostByService)
                  200184e0    00000060                             : device.oem4 (.text:_sl_HandleAsync_InitComplete)
                  20018540    00000060                             : netapp.oem4 (.text:_sl_HandleAsync_PingResponse)
                  200185a0    00000060     rtsv7M4_T_le_eabi.lib : sprintf.obj (.text)
                  20018600    00000060     sysbios.aem4 : BIOS.obj (.text:ti_sysbios_knl_Task_schedule__I)
                  20018660    0000005e     aws_iot_sl.aem4 : aws_iot_mqtt_client_publish.o (.text:_aws_iot_mqtt_read_string_with_len)
                  200186be    0000005e     drivers_cc32xxware.aem4 : UARTCC3200.oem4 (.text:readIsrBinaryBlocking)
                  2001871c    00000004     subscribe_publish_sample_pem4.oem4 (.text:ti_sysbios_knl_Clock_TimerProxy_setPeriodMicroSecs__E)
                  20018720    0000005c     sysbios.aem4 : BIOS.obj (.text:ti_sysbios_knl_Swi_run__I)
                  2001877c    00000004     subscribe_publish_sample_pem4.oem4 (.text:ti_sysbios_knl_Clock_TimerProxy_start__E)
                  20018780    0000005c     sysbios.aem4 : BIOS.obj (.text:ti_sysbios_knl_Swi_schedule__I)
                  200187dc    00000004     subscribe_publish_sample_pem4.oem4 (.text:ti_sysbios_knl_Clock_TimerProxy_stop__E)
                  200187e0    0000005c     sysbios.aem4 : BIOS.obj (.text:ti_sysbios_knl_Task_Module_startup__E)
                  2001883c    0000005c     subscribe_publish_sample_pem4.oem4 (.text:ti_sysbios_knl_Task_create)
                  20018898    0000005c     sysbios.aem4 : BIOS.obj (.text:ti_sysbios_knl_Task_startCore__E)
                  200188f4    0000005b     ti.targets.arm.rtsarm.aem4 : Text.oem4 (.text:xdc_runtime_Text_putLab__E)
                  2001894f    00000001     --HOLE-- [fill = 0]
                  20018950    0000005a     tirtosport.aem4 : ClockP_tirtos.oem4 (.text:ClockP_create)
                  200189aa    0000005a     drivers_cc32xxware.aem4 : SPICC3200DMA.oem4 (.text:SPICC3200DMA_close)
                  20018a04    0000005a     aws_iot_sl.aem4 : aws_iot_mqtt_client_connect.o (.text:aws_iot_mqtt_attempt_reconnect)
                  20018a5e    0000005a                     : network_sl.o (.text:iot_tls_write)
                  20018ab8    00000058     driverlib.a : prcm.obj (.text:PRCMPeripheralReset)
                  20018b10    00000058     drivers_cc32xxware.aem4 : PowerCC3200.oem4 (.text:Power_init)
                  20018b68    00000058     tirtosport.aem4 : SemaphoreP_tirtos.oem4 (.text:SemaphoreP_create)
                  20018bc0    00000058     cc3x00_host_driver.aem4 : driver.oem4 (.text:_SlDrvCmdSend)
                  20018c18    00000058     aws_iot_sl.aem4 : aws_iot_mqtt_client_connect.o (.text:_aws_iot_get_connect_packet_length)
                  20018c70    00000058     cc3x00_host_driver.aem4 : netapp.oem4 (.text:_sl_NetAppSendTokenValue)
                  20018cc8    00000058     aws_iot_sl.aem4 : aws_iot_mqtt_client.o (.text:aws_iot_is_autoreconnect_enabled)
                  20018d20    00000058     startsntp.o (.text:setTime)
                  20018d78    00000058     cc3x00_host_driver.aem4 : socket.oem4 (.text:sl_Bind)
                  20018dd0    00000058     subscribe_publish_sample_pem4.oem4 (.text:ti_sysbios_family_arm_m3_Hwi_construct)
                  20018e28    00000056     rtsv7M4_T_le_eabi.lib : ltoa.obj (.text)
                  20018e7e    00000002     --HOLE-- [fill = 0]
                  20018e80    00000054     CC3200_LAUNCHXL.o (.text:CC3200_LAUNCHXL_initDMA)
                  20018ed4    00000054     sntp_sl.aem4 : sntp.oem4 (.text:SNTP_setServers)
                  20018f28    00000054     drivers_cc32xxware.aem4 : UARTCC3200.oem4 (.text:UARTCC3200_writeCancel)
                  20018f7c    00000054                             : UARTCC3200.oem4 (.text:readIsrBinaryCallback)
                  20018fd0    00000054     cc3x00_host_driver.aem4 : fs.oem4 (.text:sl_FsOpen)
                  20019024    00000054                             : socket.oem4 (.text:sl_SetSockOpt)
                  20019078    00000054     sysbios.aem4 : BIOS.obj (.text:ti_sysbios_family_arm_m3_Timer_start__E)
                  200190cc    00000054     ti.targets.arm.rtsarm.aem4 : Assert.oem4 (.text:xdc_runtime_Assert_raise__I)
                  20019120    00000050     drivers_wifi_cc32xxware.aem4 : WiFiCC3200.oem4 (.text:CC3X00_NWP_enablePreamble)
                  20019170    00000050     drivers_cc32xxware.aem4 : GPIOCC3200.oem4 (.text:GPIO_write)
                  200191c0    00000050     cc3x00_host_driver.aem4 : socket.oem4 (.text:_sl_HandleAsync_Connect)
                  20019210    00000050     rtsv7M4_T_le_eabi.lib : _tvaltostr.obj (.text)
                  20019260    00000050     cc3x00_host_driver.aem4 : device.oem4 (.text:sl_DevSet)
                  200192b0    00000050                             : netcfg.oem4 (.text:sl_NetCfgSet)
                  20019300    00000050     subscribe_publish_sample.o (.text:sstartNTP)
                  20019350    00000050     sysbios.aem4 : BIOS.obj (.text:ti_sysbios_family_arm_m3_Hwi_Module_startup__E)
                  200193a0    00000050                  : BIOS.obj (.text:ti_sysbios_knl_Clock_Instance_init__E)
                  200193f0    00000050     ti.targets.arm.rtsarm.aem4 : Startup.oem4 (.text:xdc_runtime_Startup_exec__E)
                  20019440    0000004d     sntp_sl.aem4 : sntp.oem4 (.text:hasKissCode)
                  2001948d    00000003     --HOLE-- [fill = 0]
                  20019490    0000004c     drivers_cc32xxware.aem4 : GPIOCC3200.oem4 (.text:GPIO_setCallback)
                  200194dc    0000004c     driverlib.a : spi.obj (.text:SPIIntDisable)
                  20019528    0000004c                 : spi.obj (.text:SPIIntEnable)
                  20019574    0000004c     cc3x00_host_driver.aem4 : device.oem4 (.text:_SlDrvDeviceEventHandler)
                  200195c0    0000004c                             : socket.oem4 (.text:_sl_HandleAsync_Accept)
                  2001960c    0000004c     subscribe_publish_sample.o (.text:lookUpResponseFields)
                  20019658    0000004c     rtsv7M4_T_le_eabi.lib : atoi.obj (.text)
                  200196a4    0000004c                           : atol.obj (.text)
                  200196f0    0000004c                           : cpy_tbl.obj (.text)
                  2001973c    0000004c                           : localtim.obj (.text)
                  20019788    0000004c     sysbios.aem4 : m3_TaskSupport_asm.obj (.text:ti_sysbios_family_arm_m3_TaskSupport_buildTaskStack)
                  200197d4    00000004     subscribe_publish_sample_pem4.oem4 (.text:ti_sysbios_knl_Clock_destruct)
                  200197d8    0000004c     sysbios.aem4 : BIOS.obj (.text:ti_sysbios_heaps_HeapMem_getStats__E)
                  20019824    00000004     subscribe_publish_sample_pem4.oem4 (.text:ti_sysbios_knl_Event_delete)
                  20019828    0000004c     sysbios.aem4 : BIOS.obj (.text:ti_sysbios_knl_Swi_runLoop__I)
                  20019874    00000004     subscribe_publish_sample_pem4.oem4 (.text:ti_sysbios_knl_Mailbox_delete)
                  20019878    0000004c     sysbios.aem4 : BIOS.obj (.text:ti_sysbios_knl_Task_allBlockedFunction__I)
                  200198c4    0000004c     driverlib.a : udma.obj (.text:uDMAChannelAssign)
                  20019910    00000048                 : flash.obj (.text:FlashDisable)
                  20019958    00000048                 : prcm.obj (.text:PRCMHibernateWakeupSourceEnable)
                  200199a0    00000048                 : pin.obj (.text:PinConfigGet)
                  200199e8    00000048                 : spi.obj (.text:SPIIntClear)
                  20019a30    00000048     cc3x00_host_driver.aem4 : driver.oem4 (.text:_SlRemoveFromList)
                  20019a78    00000048     network_sl.aem4 : tls_sl.oem4 (.text:flashFile)
                  20019ac0    00000048     drivers_cc32xxware.aem4 : PowerCC3200.oem4 (.text:notify)
                  20019b08    00000048     rtsv7M4_T_le_eabi.lib : fd_toi_t2.obj (.text)
                  20019b50    00000048                           : fd_tos_t2.obj (.text)
                  20019b98    00000048     cc3x00_host_driver.aem4 : socket.oem4 (.text:sl_Recv)
                  20019be0    00000048     sysbios.aem4 : BIOS.obj (.text:ti_sysbios_family_arm_m3_Hwi_disableInterrupt__E)
                  20019c28    00000048                  : BIOS.obj (.text:ti_sysbios_family_arm_m3_Hwi_enableInterrupt__E)
                  20019c70    00000048                  : BIOS.obj (.text:ti_sysbios_family_arm_m3_Hwi_excReserved__I)
                  20019cb8    00000048                  : m3_Hwi_asm_switch.obj (.text:ti_sysbios_family_arm_m3_Hwi_initStacks__E)
                  20019d00    00000048                  : BIOS.obj (.text:ti_sysbios_family_arm_m3_Timer_initDevice__I)
                  20019d48    00000048                  : BIOS.obj (.text:ti_sysbios_family_arm_m3_Timer_setPeriod__E)
                  20019d90    00000048                  : BIOS.obj (.text:ti_sysbios_knl_Mailbox_Module_startup__E)
                  20019dd8    00000046     drivers_cc32xxware.aem4 : RingBuf.oem4 (.text:RingBuf_put)
                  20019e1e    00000046     aws_iot_sl.aem4 : aws_iot_mqtt_client_common_internal.o (.text:aws_iot_mqtt_internal_write_len_to_buffer)
                  20019e64    00000046                     : aws_iot_mqtt_client_common_internal.o (.text:aws_iot_mqtt_internal_write_uint_16)
                  20019eaa    00000046     rtsv7M4_T_le_eabi.lib : ldexp.obj (.text)
                  20019ef0    00000046     ti.targets.arm.rtsarm.aem4 : Core-params.oem4 (.text:xdc_runtime_Core_assignParams__I)
                  20019f36    00000002     --HOLE-- [fill = 0]
                  20019f38    00000044     driverlib.a : prcm.obj (.text:PRCMLPDSEnter)
                  20019f7c    00000044     drivers_cc32xxware.aem4 : PowerCC3200_asm.oem4 (.text:PowerCC3200_enterLPDS)
                  20019fc0    00000044     driverlib.a : spi.obj (.text:SPIDmaMaskGet)
                  2001a004    00000044     drivers_cc32xxware.aem4 : UARTCC3200.oem4 (.text:UARTCC3200_hwiIntFxn)
                  2001a048    00000044     cc3x00_host_driver.aem4 : driver.oem4 (.text:_SlAsyncEventGenericHandler)
                  2001a08c    00000044     boot.aem4 : boot.oem4 (.text)
                  2001a0d0    00000044     rtsv7M4_T_le_eabi.lib : exit.obj (.text)
                  2001a114    00000044     cc3x00_host_driver.aem4 : fs.oem4 (.text:sl_FsDel)
                  2001a158    00000044                             : wlan.oem4 (.text:sl_WlanPolicySet)
                  2001a19c    00000004     subscribe_publish_sample_pem4.oem4 (.text:ti_sysbios_knl_Queue_destruct)
                  2001a1a0    00000044     sysbios.aem4 : BIOS.obj (.text:ti_sysbios_family_arm_cc32xx_Seconds_set__E)
                  2001a1e4    00000004     subscribe_publish_sample_pem4.oem4 (.text:ti_sysbios_knl_Semaphore_delete)
                  2001a1e8    00000044     sysbios.aem4 : BIOS.obj (.text:ti_sysbios_family_arm_m3_Hwi_getStackInfo__E)
                  2001a22c    00000004     subscribe_publish_sample_pem4.oem4 (.text:ti_sysbios_knl_Semaphore_destruct)
                  2001a230    00000044     sysbios.aem4 : BIOS.obj (.text:ti_sysbios_knl_Swi_post__E)
                  2001a274    00000044     ti.targets.arm.rtsarm.aem4 : Error.oem4 (.text:xdc_runtime_Error_setX__E)
                  2001a2b8    00000044                                : Text.oem4 (.text:xdc_runtime_Text_xprintf__I)
                  2001a2fc    00000042     drivers_cc32xxware.aem4 : PowerCC3200_asm.oem4 (.text:PowerCC3200_resumeLPDS)
                  2001a33e    00000042                             : UARTCC3200.oem4 (.text:UARTCC3200_writePolling)
                  2001a380    00000042     aws_iot_sl.aem4 : aws_iot_mqtt_client_common_internal.o (.text:aws_iot_mqtt_internal_get_final_packet_length_from_remaining_length)
                  2001a3c2    00000042                     : aws_iot_mqtt_client_common_internal.o (.text:aws_iot_mqtt_internal_read_uint16_t)
                  2001a404    00000042                     : aws_iot_mqtt_client.o (.text:aws_iot_mqtt_set_client_state)
                  2001a446    00000042     subscribe_publish_sample.o (.text:skipLine)
                  2001a488    00000040     drivers_cc32xxware.aem4 : GPIOCC3200.oem4 (.text:GPIO_enableInt)
                  2001a4c8    00000040     driverlib.a : pin.obj (.text:PinModeSet)
                  2001a508    00000040     drivers_cc32xxware.aem4 : PowerCC3200.oem4 (.text:Power_setDependency)
                  2001a548    00000040                             : RingBuf.oem4 (.text:RingBuf_get)
                  2001a588    00000040                             : UARTCC3200.oem4 (.text:UARTCC3200_read)
                  2001a5c8    00000040     cc3x00_host_driver.aem4 : driver.oem4 (.text:_SlDrvRxIrqHandler)
                  2001a608    00000040                             : socket.oem4 (.text:_sl_HandleAsync_Select)
                  2001a648    00000040     sntp_sl.aem4 : sntp.oem4 (.text:changeServer)
                  2001a688    00000040     aws_iot_sl.aem4 : network_sl.o (.text:iot_tls_disconnect)
                  2001a6c8    00000040                     : jsmn.o (.text:jsmn_alloc_token)
                  2001a708    00000040     drivers_wifi_cc32xxware.aem4 : osi_tirtos.oem4 (.text:osi_LockObjLock)
                  2001a748    00000040                                  : osi_tirtos.oem4 (.text:osi_SyncObjCreate)
                  2001a788    00000040                                  : osi_tirtos.oem4 (.text:osi_SyncObjWait)
                  2001a7c8    00000040     rtsv7M4_T_le_eabi.lib : signal.obj (.text)
                  2001a808    00000040                           : strtok.obj (.text)
                  2001a848    00000040                           : u_divt2.obj (.text)
                  2001a888    00000040     sysbios.aem4 : BIOS.obj (.text:ti_sysbios_heaps_HeapMem_Instance_init__E)
                  2001a8c8    0000003e     aws_iot_sl.aem4 : aws_iot_mqtt_client_yield.o (.text:_aws_iot_mqtt_handle_disconnect)
                  2001a906    0000003e     network_sl.aem4 : certconv.oem4 (.text:base64Decode)
                  2001a944    0000003e     subscribe_publish_sample_pem4.oem4 (.text:realloc)
                  2001a982    00000002     --HOLE-- [fill = 0]
                  2001a984    0000003c     driverlib.a : prcm.obj (.text:PRCMPeripheralClkEnable)
                  2001a9c0    0000003c                 : prcm.obj (.text:PRCMSlowClkCtrFastGet)
                  2001a9fc    0000003c                 : pin.obj (.text:PinDirModeSet)
                  2001aa38    0000003c     drivers_cc32xxware.aem4 : WiFi.oem4 (.text:WiFi_open)
                  2001aa74    0000003c     cc3x00_host_driver.aem4 : device.oem4 (.text:_sl_HandleAsync_Stop)
                  2001aab0    0000003c     aws_iot_sl.aem4 : network_sl.o (.text:iot_tls_set_connect_params)
                  2001aaec    0000003c     drivers_wifi_cc32xxware.aem4 : WiFiCC3200.oem4 (.text:spi_Open)
                  2001ab28    0000003c     sysbios.aem4 : BIOS.obj (.text:ti_sysbios_family_arm_m3_Hwi_excSvCall__I)
                  2001ab64    00000004     subscribe_publish_sample_pem4.oem4 (.text:ti_sysbios_knl_Task_delete)
                  2001ab68    0000003c     sysbios.aem4 : BIOS.obj (.text:ti_sysbios_family_arm_m3_Timer_setPeriodMicroSecs__E)
                  2001aba4    00000004     ti.targets.arm.rtsarm.aem4 : Error.oem4 (.text:xdc_runtime_Error_getSite__E)
                  2001aba8    0000003c     sysbios.aem4 : BIOS.obj (.text:ti_sysbios_heaps_HeapMem_init__I)
                  2001abe4    00000004     subscribe_publish_sample_pem4.oem4 (.text:xdc_runtime_System_Module_GateProxy_enter__E)
                  2001abe8    0000003c     sysbios.aem4 : BIOS.obj (.text:ti_sysbios_knl_Clock_walkQueuePeriodic__E)
                  2001ac24    00000004     subscribe_publish_sample_pem4.oem4 (.text:xdc_runtime_System_Module_GateProxy_leave__E)
                  2001ac28    0000003c     sysbios.aem4 : BIOS.obj (.text:ti_sysbios_knl_Swi_restore__E)
                  2001ac64    0000003c     driverlib.a : udma.obj (.text:uDMAChannelControlSet)
                  2001aca0    0000003a     aws_iot_sl.aem4 : network_sl.o (.text:iot_tls_destroy)
                  2001acda    00000038     driverlib.a : adc.obj (.text:ADCChannelEnable)
                  2001ad12    00000038     subscribe_publish_sample.o (.text:HTTPCli_sendRequestBody)
                  2001ad4a    00000002     --HOLE-- [fill = 0]
                  2001ad4c    00000038     driverlib.a : prcm.obj (.text:PRCMIntEnable)
                  2001ad84    00000038     power_cc3200_tirtos.aem4 : PowerCC3200_tirtos.oem4 (.text:PowerCC3200_initPolicy)
                  2001adbc    00000038     drivers_cc32xxware.aem4 : SPI.oem4 (.text:SPI_init)
                  2001adf4    00000038                             : UART.oem4 (.text:UART_init)
                  2001ae2c    00000038                             : WiFi.oem4 (.text:WiFi_init)
                  2001ae64    00000038     aws_iot_sl.aem4 : aws_iot_mqtt_client_common_internal.o (.text:aws_iot_mqtt_internal_write_utf8_string)
                  2001ae9c    00000038                     : timer.o (.text:left_ms)
                  2001aed4    00000038     drivers_wifi_cc32xxware.aem4 : osi_tirtos.oem4 (.text:osi_LockObjCreate)
                  2001af0c    00000038     rtsv7M4_T_le_eabi.lib : fs_tod_t2.obj (.text)
                  2001af44    00000038                           : fs_toi_t2.obj (.text)
                  2001af7c    00000038                           : i_tofs_t2.obj (.text)
                  2001afb4    00000038     cc3x00_host_driver.aem4 : socket.oem4 (.text:sl_Htonl)
                  2001afec    00000038     drivers_cc32xxware.aem4 : SPICC3200DMA.oem4 (.text:spiPollingTransfer16)
                  2001b024    00000038                             : SPICC3200DMA.oem4 (.text:spiPollingTransfer8)
                  2001b05c    00000004     ti.targets.arm.rtsarm.aem4 : System.oem4 (.text:xdc_runtime_System_aprintf_va__F)
                  2001b060    00000038     sysbios.aem4 : BIOS.obj (.text:ti_sysbios_family_arm_cc32xx_Seconds_get__E)
                  2001b098    00000038                  : BIOS.obj (.text:ti_sysbios_family_arm_m3_Hwi_excNoIsr__I)
                  2001b0d0    00000038                  : BIOS.obj (.text:ti_sysbios_knl_Task_processVitalTaskFlag__I)
                  2001b108    00000038     ti.targets.arm.rtsarm.aem4 : System.oem4 (.text:xdc_runtime_System_atexit__E)
                  2001b140    00000036     driverlib.a : gpio.obj (.text:GPIODirModeSet)
                  2001b176    00000036     subscribe_publish_sample.o (.text:HTTPCli_readRawResponseBody)
                  2001b1ac    00000036     drivers_cc32xxware.aem4 : UARTCC3200.oem4 (.text:UARTCC3200_readCancel)
                  2001b1e2    00000002     --HOLE-- [fill = 0]
                  2001b1e4    00000034     drivers_wifi_cc32xxware.aem4 : WiFiCC3200.oem4 (.text:CC3X00_NWP_disable)
                  2001b218    00000034     driverlib.a : prcm.obj (.text:PRCMPeripheralStatusGet)
                  2001b24c    00000034                 : prcm.obj (.text:PRCMSRAMRetentionEnable)
                  2001b280    00000034     drivers_cc32xxware.aem4 : PowerCC3200.oem4 (.text:Power_releaseDependency)
                  2001b2b4    00000034     driverlib.a : spi.obj (.text:SPIFIFOLevelSet)
                  2001b2e8    00000034     UARTUtils.o (.text:UARTUtils_deviceread)
                  2001b31c    00000034     UARTUtils.o (.text:UARTUtils_devicewrite)
                  2001b350    00000034     cc3x00_host_driver.aem4 : driver.oem4 (.text:_SlDrvBasicCmd)
                  2001b384    00000034                             : driver.oem4 (.text:_SlDrvProtectAsyncRespSetting)
                  2001b3b8    00000034     UARTUtils.o (.text:closeHandle)
                  2001b3ec    00000034     power_cc3200_tirtos.aem4 : PowerCC3200_tirtos.oem4 (.text:getCountsRTC)
                  2001b420    00000034     drivers_cc32xxware.aem4 : PowerCC3200.oem4 (.text:restorePeriphClocks)
                  2001b454    00000034     rtsv7M4_T_le_eabi.lib : feraiseexcept.obj (.text)
                  2001b488    00000034                           : strstr.obj (.text)
                  2001b4bc    00000034     subscribe_publish_sample.o (.text:sendto)
                  2001b4f0    00000034     cc3x00_host_driver.aem4 : socket.oem4 (.text:sl_Htons)
                  2001b524    00000004     ti.targets.arm.rtsarm.aem4 : System.oem4 (.text:xdc_runtime_System_printf_va__F)
                  2001b528    00000034     sysbios.aem4 : BIOS.obj (.text:ti_sysbios_family_arm_m3_Hwi_Instance_finalize__E)
                  2001b55c    00000004     --HOLE-- [fill = 0]
                  2001b560    00000034                  : BIOS.obj (.text:ti_sysbios_family_arm_m3_Hwi_excNmi__I)
                  2001b594    00000004     --HOLE-- [fill = 0]
                  2001b598    00000034                  : BIOS.obj (.text:ti_sysbios_family_arm_m3_Timer_periodicStub__I)
                  2001b5cc    00000004     --HOLE-- [fill = 0]
                  2001b5d0    00000034                  : BIOS.obj (.text:ti_sysbios_hal_Hwi_checkStack)
                  2001b604    00000034     subscribe_publish_sample_pem4.oem4 (.text:ti_sysbios_knl_Clock_construct)
                  2001b638    00000034     subscribe_publish_sample_pem4.oem4 (.text:ti_sysbios_knl_Semaphore_create)
                  2001b66c    00000034     ti.targets.arm.rtsarm.aem4 : Core-label.oem4 (.text:xdc_runtime_Core_assignLabel__I)
                  2001b6a0    00000033                                : Text.oem4 (.text:xdc_runtime_Text_printVisFxn__I)
                  2001b6d3    00000001     --HOLE-- [fill = 0]
                  2001b6d4    00000032     subscribe_publish_sample.o (.text:HTTPCli_disconnect)
                  2001b706    00000032     network_sl.aem4 : ssock.oem4 (.text:Ssock_recv)
                  2001b738    00000032     subscribe_publish_sample.o (.text:recvfrom)
                  2001b76a    00000032     drivers_cc32xxware.aem4 : SPICC3200DMA.oem4 (.text:spiPollingTransfer32)
                  2001b79c    00000004     --HOLE-- [fill = 0]
                  2001b7a0    00000032     sysbios.aem4 : BIOS.obj (.text:ti_sysbios_hal_Hwi_initStack)
                  2001b7d2    00000030     driverlib.a : pin.obj (.text:PinTypeGPIO)
                  2001b802    00000002     --HOLE-- [fill = 0]
                  2001b804    00000030     drivers_cc32xxware.aem4 : PowerCC3200.oem4 (.text:Power_releaseConstraint)
                  2001b834    00000030                             : PowerCC3200.oem4 (.text:Power_setConstraint)
                  2001b864    00000030                             : SPI.oem4 (.text:SPI_open)
                  2001b894    00000030     netwifi.o (.text:SimpleLinkWlanEventHandler)
                  2001b8c4    00000030     driverlib.a : uart.obj (.text:UARTDisable)
                  2001b8f4    00000030     drivers_cc32xxware.aem4 : UART.oem4 (.text:UART_open)
                  2001b924    00000030     aws_iot_sl.aem4 : aws_iot_mqtt_client_subscribe.o (.text:_aws_iot_mqtt_get_free_message_handler_index)
                  2001b954    00000030     drivers_wifi_cc32xxware.aem4 : WiFiCC3200.oem4 (.text:registerInterruptHandler)
                  2001b984    00000030     rtsv7M4_T_le_eabi.lib : strcasecmp.obj (.text)
                  2001b9b4    00000030                           : strncpy.obj (.text)
                  2001b9e4    00000030                           : xferaise.obj (.text)
                  2001ba14    00000030     cc3x00_host_driver.aem4 : socket.oem4 (.text:sl_Socket)
                  2001ba44    00000030     subscribe_publish_sample_pem4.oem4 (.text:ti_sysbios_BIOS_atExitFunc__I)
                  2001ba74    00000004     --HOLE-- [fill = 0]
                  2001ba78    00000030     sysbios.aem4 : BIOS.obj (.text:ti_sysbios_family_arm_m3_TaskSupport_start__E)
                  2001baa8    00000030     subscribe_publish_sample_pem4.oem4 (.text:ti_sysbios_gates_GateHwi_Object__create__S)
                  2001bad8    00000030     subscribe_publish_sample_pem4.oem4 (.text:ti_sysbios_gates_GateMutex_Object__create__S)
                  2001bb08    00000030     sysbios.aem4 : BIOS.obj (.text:ti_sysbios_gates_GateMutex_enter__E)
                  2001bb38    00000030     subscribe_publish_sample_pem4.oem4 (.text:ti_sysbios_heaps_HeapMem_Object__create__S)
                  2001bb68    00000030     subscribe_publish_sample_pem4.oem4 (.text:ti_sysbios_knl_Event_create)
                  2001bb98    00000030     sysbios.aem4 : BIOS.obj (.text:ti_sysbios_knl_Event_pendTimeout__I)
                  2001bbc8    00000030                  : BIOS.obj (.text:ti_sysbios_knl_Mailbox_postInit__I)
                  2001bbf8    00000030     subscribe_publish_sample_pem4.oem4 (.text:ti_sysbios_knl_Semaphore_construct)
                  2001bc28    00000030     sysbios.aem4 : BIOS.obj (.text:ti_sysbios_knl_Semaphore_pendTimeout__I)
                  2001bc58    00000030                  : BIOS.obj (.text:ti_sysbios_knl_Task_unblockI__E)
                  2001bc88    00000030     ti.targets.arm.rtsarm.aem4 : System.oem4 (.text:xdc_runtime_System_processAtExit__E)
                  2001bcb8    0000002e     UARTUtils.o (.text:UARTUtils_deviceopen)
                  2001bce6    0000002e     subscribe_publish_sample_pem4.oem4 (.text:malloc)
                  2001bd14    0000002e     rtsv7M4_T_le_eabi.lib : i_tofd_t2.obj (.text)
                  2001bd42    0000002e                           : raise.obj (.text)
                  2001bd70    0000002c     drivers_wifi_cc32xxware.aem4 : WiFiCC3200.oem4 (.text:CC3X00_NWP_enable)
                  2001bd9c    0000002c     driverlib.a : prcm.obj (.text:PRCMLPDSIntervalSet)
                  2001bdc8    0000002c                 : prcm.obj (.text:PRCMSysResetCauseGet)
                  2001bdf4    0000002c     sntp_sl.aem4 : sntp.oem4 (.text:SNTP_forceTimeSync)
                  2001be20    0000002c     aws_iot_sl.aem4 : jsmn.o (.text:jsmn_fill_token)
                  2001be4c    0000002c                     : timer.o (.text:msToTicks)
                  2001be78    0000002c     rtsv7M4_T_le_eabi.lib : assert.obj (.text)
                  2001bea4    0000002c     subscribe_publish_sample.o (.text:setCliState)
                  2001bed0    0000002c     aws_iot_sl.aem4 : network_sl.o (.text:setsockopt)
                  2001befc    0000002c     subscribe_publish_sample.o (.text:setsockopt)
                  2001bf28    0000002c     subscribe_publish_sample_pem4.oem4 (.text:ti_sysbios_knl_Clock_doTick__I)
                  2001bf54    0000002c     subscribe_publish_sample_pem4.oem4 (.text:ti_sysbios_knl_Queue_construct)
                  2001bf80    0000002c     sysbios.aem4 : BIOS.obj (.text:ti_sysbios_knl_Task_restore__E)
                  2001bfac    0000002c     aws_iot_sl.aem4 : timer.o (.text:ticksToMs)
                  2001bfd8    0000002c     ti.targets.arm.rtsarm.aem4 : Text.oem4 (.text:xdc_runtime_Text_cordText__E)
                  2001c004    0000002a     driverlib.a : spi.obj (.text:SPIDataGetNonBlocking)
                  2001c02e    0000002a     cc3x00_host_driver.aem4 : socket.oem4 (.text:_sl_BuildAddress)
                  2001c058    0000002a     rtsv7M4_T_le_eabi.lib : strspn.obj (.text)
                  2001c082    0000002a                           : xdclass.obj (.text)
                  2001c0ac    0000002a     subscribe_publish_sample.o (.text:startSecureMode)
                  2001c0d6    0000002a     ti.targets.arm.rtsarm.aem4 : System.oem4 (.text:xdc_runtime_System_putchar__I)
                  2001c100    00000028     driverlib.a : prcm.obj (.text:PRCMLPDSWakeupSourceEnable)
                  2001c128    00000028                 : prcm.obj (.text:PRCMPeripheralClkDisable)
                  2001c150    00000028     drivers_cc32xxware.aem4 : PowerCC3200.oem4 (.text:Power_registerNotify)
                  2001c178    00000028     network_sl.aem4 : ssock.oem4 (.text:Ssock_recvall)
                  2001c1a0    00000028     aws_iot_sl.aem4 : aws_iot_mqtt_client_yield.o (.text:_aws_iot_mqtt_force_client_disconnect)
                  2001c1c8    00000028     drivers_cc32xxware.aem4 : UARTCC3200.oem4 (.text:releasePowerConstraint)
                  2001c1f0    00000028     rtsv7M4_T_le_eabi.lib : strncat.obj (.text)
                  2001c218    00000028     sysbios.aem4 : BIOS.obj (.text:ti_sysbios_knl_Clock_addI__E)
                  2001c240    00000028                  : BIOS.obj (.text:ti_sysbios_knl_Swi_Module_startup__E)
                  2001c268    00000028     driverlib.a : udma.obj (.text:uDMAChannelIsEnabled)
                  2001c290    00000026     subscribe_publish_sample.o (.text:HTTPCli_destruct)
                  2001c2b6    00000026     subscribe_publish_sample.o (.text:HTTPCli_setRequestFields)
                  2001c2dc    00000026     subscribe_publish_sample.o (.text:HTTPCli_setResponseFields)
                  2001c302    00000026     drivers_cc32xxware.aem4 : List.oem4 (.text:List_put)
                  2001c328    00000026     aws_iot_sl.aem4 : aws_iot_mqtt_client.o (.text:aws_iot_mqtt_get_next_packet_id)
                  2001c34e    00000026     network_sl.aem4 : ssock_sl.oem4 (.text:fileExists)
                  2001c374    00000026     aws_iot_sl.aem4 : network_sl.o (.text:gethostbyname)
                  2001c39a    00000026     startsntp.o (.text:gethostbyname)
                  2001c3c0    00000026     rtsv7M4_T_le_eabi.lib : strncmp.obj (.text)
                  2001c3e6    00000026     ti.targets.arm.rtsarm.aem4 : System.oem4 (.text:xdc_runtime_System_avprintf__E)
                  2001c40c    00000024     driverlib.a : prcm.obj (.text:PRCMLPDSWakeUpGPIOSelect)
                  2001c430    00000024     subscribe_publish_sample.o (.text:RebootMCU)
                  2001c454    00000024     netwifi.o (.text:SimpleLinkNetAppEventHandler)
                  2001c478    00000024     network_sl.aem4 : tls_sl.oem4 (.text:TLS_delete)
                  2001c49c    00000024     driverlib.a : uart.obj (.text:UARTCharPutNonBlocking)
                  2001c4c0    00000024                 : uart.obj (.text:UARTEnable)
                  2001c4e4    00000024     UARTUtils.o (.text:UARTUtils_systemAbort)
                  2001c508    00000024     drivers_wifi_cc32xxware.aem4 : osi_tirtos.oem4 (.text:osi_Spawn)
                  2001c52c    00000024     rtsv7M4_T_le_eabi.lib : strcspn.obj (.text)
                  2001c550    00000024                           : u_tofs_t2.obj (.text)
                  2001c574    00000024     cc3x00_host_driver.aem4 : socket.oem4 (.text:sl_Close)
                  2001c598    00000024                             : wlan.oem4 (.text:sl_WlanProfileDel)
                  2001c5bc    00000024                             : wlan.oem4 (.text:sl_WlanSetMode)
                  2001c5e0    00000024     subscribe_publish_sample_pem4.oem4 (.text:ti_sysbios_BIOS_registerRTSLock__I)
                  2001c604    00000024     subscribe_publish_sample_pem4.oem4 (.text:ti_sysbios_BIOS_removeRTSLock__I)
                  2001c628    00000024     subscribe_publish_sample_pem4.oem4 (.text:ti_sysbios_BIOS_startFunc__I)
                  2001c64c    00000004     --HOLE-- [fill = 0]
                  2001c650    00000024     sysbios.aem4 : BIOS.obj (.text:ti_sysbios_family_arm_m3_Timer_Module_startup__E)
                  2001c674    00000004     --HOLE-- [fill = 0]
                  2001c678    00000024                  : BIOS.obj (.text:ti_sysbios_family_arm_m3_Timer_postInit__I)
                  2001c69c    00000004     --HOLE-- [fill = 0]
                  2001c6a0    00000024                  : BIOS.obj (.text:ti_sysbios_family_arm_m3_Timer_startup__E)
                  2001c6c4    00000024     subscribe_publish_sample_pem4.oem4 (.text:ti_sysbios_gates_GateMutex_Object__delete__S)
                  2001c6e8    00000024     sysbios.aem4 : BIOS.obj (.text:ti_sysbios_knl_Clock_Module_startup__E)
                  2001c70c    00000004     --HOLE-- [fill = 0]
                  2001c710    00000024                  : BIOS.obj (.text:ti_sysbios_knl_Clock_start__E)
                  2001c734    00000004     --HOLE-- [fill = 0]
                  2001c738    00000024                  : BIOS.obj (.text:ti_sysbios_knl_Semaphore_Instance_init__E)
                  2001c75c    00000024     subscribe_publish_sample_pem4.oem4 (.text:ti_sysbios_knl_Semaphore_Object__delete__S)
                  2001c780    00000024     sysbios.aem4 : BIOS.obj (.text:ti_sysbios_knl_Task_restoreHwi__E)
                  2001c7a4    00000024     ti.targets.arm.rtsarm.aem4 : System.oem4 (.text:xdc_runtime_System_vprintf__E)
                  2001c7c8    00000022     driverlib.a : adc.obj (.text:ADCTimerConfig)
                  2001c7ea    00000022                 : gpio.obj (.text:GPIOIntStatus)
                  2001c80c    00000022                 : spi.obj (.text:SPIReset)
                  2001c82e    00000022                 : spi.obj (.text:SPIWordCountSet)
                  2001c850    00000022     aws_iot_sl.aem4 : aws_iot_mqtt_client.o (.text:aws_iot_mqtt_autoreconnect_set_status)
                  2001c872    00000022     rtsv7M4_T_le_eabi.lib : frexp.obj (.text)
                  2001c894    00000020     driverlib.a : gpio.obj (.text:GPIOPinWrite)
                  2001c8b4    00000020                 : prcm.obj (.text:PRCMLPDSRestoreInfoSet)
                  2001c8d4    00000020     drivers_cc32xxware.aem4 : PowerCC3200.oem4 (.text:Power_idleFunc)
                  2001c8f4    00000020                             : PowerCC3200.oem4 (.text:Power_unregisterNotify)
                  2001c914    00000020     driverlib.a : spi.obj (.text:SPIDataGet)
                  2001c934    00000020     UARTUtils.o (.text:UARTUtils_systemPutch)
                  2001c954    00000020     aws_iot_sl.aem4 : aws_iot_mqtt_client_common_internal.o (.text:aws_iot_mqtt_internal_read_char)
                  2001c974    00000020                     : aws_iot_mqtt_client_common_internal.o (.text:aws_iot_mqtt_internal_write_char)
                  2001c994    00000020     drivers_cc32xxware.aem4 : SPICC3200DMA.oem4 (.text:getPowerMgrId)
                  2001c9b4    00000020                             : UARTCC3200.oem4 (.text:getPowerMgrId)
                  2001c9d4    00000020     aws_iot_sl.aem4 : timer.o (.text:has_timer_expired)
                  2001c9f4    00000020     rtsv7M4_T_le_eabi.lib : memchr.obj (.text)
                  2001ca14    00000020     aws_iot_sl.aem4 : network_sl.o (.text:socket)
                  2001ca34    00000020     subscribe_publish_sample.o (.text:socket)
                  2001ca54    00000020     subscribe_publish_sample_pem4.oem4 (.text:ti_sysbios_BIOS_rtsLock__I)
                  2001ca74    00000004     --HOLE-- [fill = 0]
                  2001ca78    00000020     sysbios.aem4 : BIOS.obj (.text:ti_sysbios_family_arm_m3_Hwi_clearInterrupt__E)
                  2001ca98    00000020                  : m3_Hwi_asm.obj (.text:ti_sysbios_family_arm_m3_Hwi_excHandlerAsm__I)
                  2001cab8    00000020                  : BIOS.obj (.text:ti_sysbios_family_arm_m3_Hwi_excHandler__I)
                  2001cad8    00000020     subscribe_publish_sample_pem4.oem4 (.text:ti_sysbios_gates_GateHwi_Object__delete__S)
                  2001caf8    00000020     subscribe_publish_sample_pem4.oem4 (.text:ti_sysbios_heaps_HeapMem_Object__delete__S)
                  2001cb18    00000020     subscribe_publish_sample_pem4.oem4 (.text:ti_sysbios_knl_Clock_Object__destruct__S)
                  2001cb38    00000020     subscribe_publish_sample_pem4.oem4 (.text:ti_sysbios_knl_Event_Object__delete__S)
                  2001cb58    00000020     sysbios.aem4 : BIOS.obj (.text:ti_sysbios_knl_Idle_run__E)
                  2001cb78    00000020     subscribe_publish_sample_pem4.oem4 (.text:ti_sysbios_knl_Mailbox_Object__delete__S)
                  2001cb98    00000020     subscribe_publish_sample_pem4.oem4 (.text:ti_sysbios_knl_Semaphore_Object__destruct__S)
                  2001cbb8    00000020     subscribe_publish_sample_pem4.oem4 (.text:ti_sysbios_knl_Task_Object__delete__S)
                  2001cbd8    00000020     ti.targets.arm.rtsarm.aem4 : Registry.oem4 (.text:xdc_runtime_Registry_findById__E)
                  2001cbf8    0000001e     driverlib.a : spi.obj (.text:SPIDataPut)
                  2001cc16    0000001e                 : uart.obj (.text:UARTCharPut)
                  2001cc34    0000001e                 : uart.obj (.text:UARTIntStatus)
                  2001cc52    0000001e     drivers_wifi_cc32xxware.aem4 : WiFiCC3200.oem4 (.text:WiFiCC3200_close)
                  2001cc70    0000001e     network_sl.aem4 : tls_sl.oem4 (.text:getTLSMethod)
                  2001cc8e    0000001e     aws_iot_sl.aem4 : jsmn.o (.text:jsmn_init)
                  2001ccac    0000001e     rtsv7M4_T_le_eabi.lib : strcat.obj (.text)
                  2001ccca    0000001e     subscribe_publish_sample_pem4.oem4 (.text:ti_sysbios_BIOS_errorRaiseHook__I)
                  2001cce8    0000001e     sysbios.aem4 : m3_Hwi_asm_switch.obj (.text:ti_sysbios_family_xxx_Hwi_switchAndRunFunc)
                  2001cd06    0000001e     subscribe_publish_sample.o (.text:xvsnprintf)
                  2001cd24    0000001c     driverlib.a : adc.obj (.text:ADCFIFOLvlGet)
                  2001cd40    0000001c     subscribe_publish_sample.o (.text:HTTPCli_getResponseStatus)
                  2001cd5c    0000001c     drivers_cc32xxware.aem4 : SPICC3200DMA.oem4 (.text:SPICC3200DMA_init)
                  2001cd78    0000001c     network_sl.aem4 : ssock.oem4 (.text:Ssock_delete)
                  2001cd94    0000001c                     : ssock.oem4 (.text:Ssock_destruct)
                  2001cdb0    0000001c     driverlib.a : uart.obj (.text:UARTCharGetNonBlocking)
                  2001cdcc    0000001c                 : uart.obj (.text:UARTFlowControlSet)
                  2001cde8    0000001c     cc3x00_host_driver.aem4 : driver.oem4 (.text:_SlDrvProtectionObjLockWaitForever)
                  2001ce04    0000001c                             : socket.oem4 (.text:_sl_TruncatePayloadByProtocol)
                  2001ce20    0000001c     subscribe_publish_sample.o (.text:bind)
                  2001ce3c    0000001c     aws_iot_sl.aem4 : network_sl.o (.text:connect)
                  2001ce58    0000001c     subscribe_publish_sample.o (.text:connect)
                  2001ce74    0000001c     rtsv7M4_T_le_eabi.lib : memccpy.obj (.text)
                  2001ce90    0000001c     subscribe_publish_sample_pem4.oem4 (.text:ti_sysbios_family_arm_m3_Hwi_Object__destruct__S)
                  2001ceac    00000004     --HOLE-- [fill = 0]
                  2001ceb0    0000001c     sysbios.aem4 : BIOS.obj (.text:ti_sysbios_family_arm_m3_Timer_stop__E)
                  2001cecc    00000004     --HOLE-- [fill = 0]
                  2001ced0    0000001c                  : BIOS.obj (.text:ti_sysbios_gates_GateMutex_Instance_init__E)
                  2001ceec    00000004     --HOLE-- [fill = 0]
                  2001cef0    0000001c                  : BIOS.obj (.text:ti_sysbios_knl_Clock_Instance_finalize__E)
                  2001cf0c    0000001c     subscribe_publish_sample_pem4.oem4 (.text:ti_sysbios_knl_Queue_Object__destruct__S)
                  2001cf28    0000001c     sysbios.aem4 : BIOS.obj (.text:ti_sysbios_knl_Queue_get__E)
                  2001cf44    00000004     --HOLE-- [fill = 0]
                  2001cf48    0000001c                  : BIOS.obj (.text:ti_sysbios_knl_Queue_put__E)
                  2001cf64    00000004     --HOLE-- [fill = 0]
                  2001cf68    0000001c                  : BIOS.obj (.text:ti_sysbios_knl_Task_enter__I)
                  2001cf84    0000001c     driverlib.a : udma.obj (.text:uDMAChannelEnable)
                  2001cfa0    0000001c     drivers_wifi_cc32xxware.aem4 : osi_tirtos.oem4 (.text:vSimpleLinkSpawnTask)
                  2001cfbc    0000001c     ti.targets.arm.rtsarm.aem4 : Error.oem4 (.text:xdc_runtime_Error_raiseX__E)
                  2001cfd8    0000001c                                : Memory.oem4 (.text:xdc_runtime_Memory_valloc__E)
                  2001cff4    0000001c                                : System.oem4 (.text:xdc_runtime_System_abort__E)
                  2001d010    0000001a     cc3x00_host_driver.aem4 : netapp.oem4 (.text:CopyPingResultsToReport)
                  2001d02a    0000001a     driverlib.a : gpio.obj (.text:GPIOIntEnable)
                  2001d044    0000001a     drivers_cc32xxware.aem4 : List.oem4 (.text:List_remove)
                  2001d05e    0000001a     driverlib.a : pin.obj (.text:PinTypeUART)
                  2001d078    0000001a                 : spi.obj (.text:SPIDmaDisable)
                  2001d092    0000001a                 : spi.obj (.text:SPIDmaEnable)
                  2001d0ac    0000001a                 : spi.obj (.text:SPIFIFODisable)
                  2001d0c6    0000001a                 : spi.obj (.text:SPIFIFOEnable)
                  2001d0e0    0000001a     subscribe_publish_sample.o (.text:getCliState)
                  2001d0fa    0000001a     subscribe_publish_sample.o (.text:isValidSocket)
                  2001d114    0000001a     sysbios.aem4 : m3_Hwi_asm.obj (.text:ti_sysbios_family_arm_m3_Hwi_pendSV__I)
                  2001d12e    0000001a     subscribe_publish_sample_pem4.oem4 (.text:xdc_runtime_System_aprintf__E)
                  2001d148    0000001a     subscribe_publish_sample_pem4.oem4 (.text:xdc_runtime_System_printf__E)
                  2001d162    0000001a     network_sl.aem4 : tls_sl.oem4 (.text:xsnprintf)
                  2001d17c    00000018     driverlib.a : adc.obj (.text:ADCFIFORead)
                  2001d194    00000018                 : gpio.obj (.text:GPIOPinRead)
                  2001d1ac    00000018     subscribe_publish_sample.o (.text:HTTPCli_construct)
                  2001d1c4    00000018     subscribe_publish_sample.o (.text:NetMACAddressGet)
                  2001d1dc    00000018     driverlib.a : prcm.obj (.text:PRCMHibernateEnter)
                  2001d1f4    00000018                 : spi.obj (.text:SPICSDisable)
                  2001d20c    00000018                 : spi.obj (.text:SPICSEnable)
                  2001d224    00000018                 : spi.obj (.text:SPIDisable)
                  2001d23c    00000018                 : spi.obj (.text:SPIEnable)
                  2001d254    00000018     network_sl.aem4 : ssock.oem4 (.text:Ssock_create)
                  2001d26c    00000018     driverlib.a : uart.obj (.text:UARTBusy)
                  2001d284    00000018                 : uart.obj (.text:UARTFIFOLevelSet)
                  2001d29c    00000018                 : uart.obj (.text:UARTIntDisable)
                  2001d2b4    00000018                 : uart.obj (.text:UARTIntEnable)
                  2001d2cc    00000018     UARTUtils.o (.text:UARTUtils_deviceclose)
                  2001d2e4    00000018     drivers_cc32xxware.aem4 : UART.oem4 (.text:UART_Params_init)
                  2001d2fc    00000018     drivers_wifi_cc32xxware.aem4 : osi_tirtos.oem4 (.text:VDeleteSimpleLinkSpawnTask)
                  2001d314    00000018                                  : WiFiCC3200.oem4 (.text:WiFiCC3200_init)
                  2001d32c    00000018     cc3x00_host_driver.aem4 : driver.oem4 (.text:_SlDrvProtectionObjUnLock)
                  2001d344    00000018     subscribe_publish_sample_pem4.oem4 (.text:free)
                  2001d35c    00000018     rtsv7M4_T_le_eabi.lib : args_main.obj (.text)
                  2001d374    00000018                           : ll_mul_t2.obj (.text)
                  2001d38c    00000018                           : strcmp.obj (.text)
                  2001d3a4    00000018     drivers_wifi_cc32xxware.aem4 : WiFiCC3200.oem4 (.text:spi_Close)
                  2001d3bc    00000018     subscribe_publish_sample_pem4.oem4 (.text:ti_sysbios_BIOS_rtsUnlock__I)
                  2001d3d4    00000018     subscribe_publish_sample_pem4.oem4 (.text:ti_sysbios_family_arm_m3_Hwi_Handle__label__S)
                  2001d3ec    00000018     subscribe_publish_sample_pem4.oem4 (.text:ti_sysbios_family_arm_m3_Hwi_Module__startupDone__F)
                  2001d404    00000018     subscribe_publish_sample_pem4.oem4 (.text:ti_sysbios_family_arm_m3_Timer_Module__startupDone__F)
                  2001d41c    00000018     subscribe_publish_sample_pem4.oem4 (.text:ti_sysbios_gates_GateHwi_Handle__label__S)
                  2001d434    00000018     subscribe_publish_sample_pem4.oem4 (.text:ti_sysbios_gates_GateMutex_Handle__label__S)
                  2001d44c    00000004     --HOLE-- [fill = 0]
                  2001d450    00000018     sysbios.aem4 : BIOS.obj (.text:ti_sysbios_gates_GateMutex_leave__E)
                  2001d468    00000018     subscribe_publish_sample_pem4.oem4 (.text:ti_sysbios_heaps_HeapMem_Handle__label__S)
                  2001d480    00000018     subscribe_publish_sample_pem4.oem4 (.text:ti_sysbios_knl_Swi_Handle__label__S)
                  2001d498    00000018     subscribe_publish_sample_pem4.oem4 (.text:ti_sysbios_knl_Task_Handle__label__S)
                  2001d4b0    00000018     sysbios.aem4 : BIOS.obj (.text:ti_sysbios_knl_Task_sleepTimeout__I)
                  2001d4c8    00000018     subscribe_publish_sample_pem4.oem4 (.text:time)
                  2001d4e0    00000018     ti.targets.arm.rtsarm.aem4 : Error.oem4 (.text:xdc_runtime_Error_check__E)
                  2001d4f8    00000018                                : System.oem4 (.text:xdc_runtime_System_exit__E)
                  2001d510    00000018                                : Text.oem4 (.text:xdc_runtime_Text_ropeText__E)
                  2001d528    00000016     driverlib.a : adc.obj (.text:ADCTimerEnable)
                  2001d53e    00000016     tirtosport.aem4 : ClockP_tirtos.oem4 (.text:ClockP_delete)
                  2001d554    00000016                     : HwiP_tirtos.oem4 (.text:HwiP_delete)
                  2001d56a    00000016     driverlib.a : prcm.obj (.text:PRCMHIBRegRead)
                  2001d580    00000016                 : prcm.obj (.text:PRCMHIBRegWrite)
                  2001d596    00000016     tirtosport.aem4 : SemaphoreP_tirtos.oem4 (.text:SemaphoreP_delete)
                  2001d5ac    00000016     driverlib.a : uart.obj (.text:UARTCharGet)
                  2001d5c2    00000016     cc3x00_host_driver.aem4 : fs.oem4 (.text:_sl_Strlen)
                  2001d5d8    00000016     aws_iot_sl.aem4 : aws_iot_mqtt_client.o (.text:aws_iot_mqtt_get_client_state)
                  2001d5ee    00000016                     : timer.o (.text:init_timer)
                  2001d604    00000016     rtsv7M4_T_le_eabi.lib : strchr.obj (.text)
                  2001d61a    00000016     drivers_cc32xxware.aem4 : UARTCC3200.oem4 (.text:startTxFifoEmptyClk)
                  2001d630    00000016     subscribe_publish_sample_pem4.oem4 (.text:ti_sysbios_BIOS_exitFunc__I)
                  2001d646    00000016     startsntp.o (.text:ti_sysbios_knl_Semaphore_Params_init)
                  2001d65c    00000016     main.o (.text:ti_sysbios_knl_Task_Params_init)
                  2001d672    00000014     driverlib.a : adc.obj (.text:ADCEnable)
                  2001d686    00000014                 : cpu.obj (.text:CPUcpsid)
                  2001d69a    00000014                 : cpu.obj (.text:CPUcpsie)
                  2001d6ae    00000014                 : gpio.obj (.text:GPIOIntClear)
                  2001d6c2    00000014                 : pin.obj (.text:PinTypeADC)
                  2001d6d6    00000002     --HOLE-- [fill = 0]
                  2001d6d8    00000014     drivers_cc32xxware.aem4 : SPI.oem4 (.text:SPI_Params_init)
                  2001d6ec    00000014     network_sl.aem4 : ssock.oem4 (.text:Ssock_construct)
                  2001d700    00000014     UARTUtils.o (.text:UARTUtils_systemReady)
                  2001d714    00000014     drivers_wifi_cc32xxware.aem4 : WiFiCC3200.oem4 (.text:hostDriverInterruptHandler)
                  2001d728    00000014                                  : osi_tirtos.oem4 (.text:osi_SyncObjClear)
                  2001d73c    00000014     rtsv7M4_T_le_eabi.lib : _lock.obj (.text)
                  2001d750    00000014                           : strcpy.obj (.text)
                  2001d764    00000014                           : strlen.obj (.text)
                  2001d778    00000014     subscribe_publish_sample_pem4.oem4 (.text:ti_sysbios_family_arm_m3_Hwi_Object__get__S)
                  2001d78c    00000004     --HOLE-- [fill = 0]
                  2001d790    00000014     sysbios.aem4 : BIOS.obj (.text:ti_sysbios_family_arm_m3_Hwi_switchFromBootStack__E)
                  2001d7a4    00000014     subscribe_publish_sample_pem4.oem4 (.text:ti_sysbios_heaps_HeapMem_Object__get__S)
                  2001d7b8    00000014     sysbios.aem4 : BIOS.obj (.text:ti_sysbios_knl_Clock_tickReconfig__E)
                  2001d7cc    00000004     --HOLE-- [fill = 0]
                  2001d7d0    00000014                  : BIOS.obj (.text:ti_sysbios_knl_Event_Instance_init__E)
                  2001d7e4    00000014     subscribe_publish_sample_pem4.oem4 (.text:ti_sysbios_knl_Swi_Object__get__S)
                  2001d7f8    00000014     startsntp.o (.text:timeUpdateHook)
                  2001d80c    00000014     driverlib.a : udma.obj (.text:uDMAControlBaseSet)
                  2001d820    00000012     tirtosport.aem4 : ClockP_tirtos.oem4 (.text:ClockP_start)
                  2001d832    00000012     drivers_cc32xxware.aem4 : RingBuf.oem4 (.text:RingBuf_construct)
                  2001d844    00000012     tirtosport.aem4 : SemaphoreP_tirtos.oem4 (.text:SemaphoreP_pend)
                  2001d856    00000012     driverlib.a : uart.obj (.text:UARTIntClear)
                  2001d868    00000012                 : uart.obj (.text:UARTRxErrorGet)
                  2001d87a    00000012     UARTUtils.o (.text:UARTUtils_devicelseek)
                  2001d88c    00000012     cc3x00_host_driver.aem4 : driver.oem4 (.text:_SlDrvObjLockWaitForever)
                  2001d89e    00000012                             : driver.oem4 (.text:_SlDrvSyncObjWaitForever)
                  2001d8b0    00000012     sysbios.aem4 : BIOS.obj (.text:ti_sysbios_hal_Hwi_Module_startup__E)
                  2001d8c2    00000012     subscribe_publish_sample_pem4.oem4 (.text:xdc_runtime_Startup_exec__I)
                  2001d8d4    00000010     CC3200_LAUNCHXL.o (.text:CC3200_LAUNCHXL_initGeneral)
                  2001d8e4    00000010     CC3200_LAUNCHXL.o (.text:CC3200_LAUNCHXL_initWiFi)
                  2001d8f4    00000010     drivers_wifi_cc32xxware.aem4 : WiFiCC3200.oem4 (.text:CC3X00_NWP_maskInterrupt)
                  2001d904    00000010     cc3x00_host_driver.aem4 : socket.oem4 (.text:SL_FD_SET)
                  2001d914    00000010     driverlib.a : uart.obj (.text:UARTRxErrorClear)
                  2001d924    00000010     UARTUtils.o (.text:UARTUtils_devicerename)
                  2001d934    00000010     drivers_cc32xxware.aem4 : WiFi.oem4 (.text:WiFi_Params_init)
                  2001d944    00000010     cc3x00_host_driver.aem4 : device.oem4 (.text:_sl_GetStartResponseConvert)
                  2001d954    00000010     aws_iot_sl.aem4 : network_sl.o (.text:close)
                  2001d964    00000010     subscribe_publish_sample.o (.text:close)
                  2001d974    00000010     aws_iot_sl.aem4 : network_sl.o (.text:htons)
                  2001d984    00000010     startsntp.o (.text:htons)
                  2001d994    00000010     subscribe_publish_sample.o (.text:htons)
                  2001d9a4    00000010     drivers_cc32xxware.aem4 : UARTCC3200.oem4 (.text:readBlockingTimeout)
                  2001d9b4    00000004     --HOLE-- [fill = 0]
                  2001d9b8    00000010     sysbios.aem4 : BIOS.obj (.text:ti_sysbios_BIOS_getCpuFreq__E)
                  2001d9c8    00000010                  : BIOS.obj (.text:ti_sysbios_BIOS_setThreadType__E)
                  2001d9d8    00000010                  : BIOS.obj (.text:ti_sysbios_BIOS_start__E)
                  2001d9e8    00000010                  : m3_TaskSupport_asm.obj (.text:ti_sysbios_family_arm_m3_TaskSupport_glue)
                  2001d9f8    00000010                  : m3_TaskSupport_asm.obj (.text:ti_sysbios_family_arm_m3_TaskSupport_swap__E)
                  2001da08    00000010                  : BIOS.obj (.text:ti_sysbios_gates_GateMutex_Instance_finalize__E)
                  2001da18    00000010     subscribe_publish_sample_pem4.oem4 (.text:ti_sysbios_knl_Mailbox_Object__get__S)
                  2001da28    00000010     sysbios.aem4 : BIOS.obj (.text:ti_sysbios_knl_Semaphore_Instance_finalize__E)
                  2001da38    00000010                  : BIOS.obj (.text:ti_sysbios_knl_Swi_disable__E)
                  2001da48    00000010     subscribe_publish_sample_pem4.oem4 (.text:ti_sysbios_knl_Task_Object__get__S)
                  2001da58    00000010     sysbios.aem4 : BIOS.obj (.text:ti_sysbios_knl_Task_disable__E)
                  2001da68    00000010     ti.targets.arm.rtsarm.aem4 : Gate.oem4 (.text:xdc_runtime_Gate_leaveSystem__E)
                  2001da78    00000010                                : Memory.oem4 (.text:xdc_runtime_Memory_free__E)
                  2001da88    00000010                                : SysCallback.oem4 (.text:xdc_runtime_SysCallback_abort__E)
                  2001da98    00000010                                : SysCallback.oem4 (.text:xdc_runtime_SysCallback_exit__E)
                  2001daa8    00000010                                : SysCallback.oem4 (.text:xdc_runtime_SysCallback_flush__E)
                  2001dab8    00000010                                : SysCallback.oem4 (.text:xdc_runtime_SysCallback_putch__E)
                  2001dac8    00000010                                : SysCallback.oem4 (.text:xdc_runtime_SysCallback_ready__E)
                  2001dad8    00000010                                : System.oem4 (.text:xdc_runtime_System_vsnprintf__E)
                  2001dae8    0000000e     tirtosport.aem4 : HwiP_tirtos.oem4 (.text:HwiP_Params_init)
                  2001daf6    0000000e     UARTUtils.o (.text:UARTUtils_deviceunlink)
                  2001db04    0000000e     cc3x00_host_driver.aem4 : driver.oem4 (.text:_SlDrvObjUnLock)
                  2001db12    0000000e                             : driver.oem4 (.text:_SlDrvSyncObjSignal)
                  2001db20    0000000e     rtsv7M4_T_le_eabi.lib : copy_decompress_none.obj (.text:decompress:none)
                  2001db2e    00000002     --HOLE-- [fill = 0]
                  2001db30    0000000e     sysbios.aem4 : BIOS.obj (.text:ti_sysbios_knl_Idle_loop__E)
                  2001db3e    00000002     --HOLE-- [fill = 0]
                  2001db40    0000000e                  : BIOS.obj (.text:ti_sysbios_knl_Queue_empty__E)
                  2001db4e    00000002     --HOLE-- [fill = 0]
                  2001db50    0000000c     drivers_wifi_cc32xxware.aem4 : WiFiCC3200.oem4 (.text:CC3X00_NWP_unMaskInterrupt)
                  2001db5c    0000000c     driverlib.a : cpu.obj (.text:CPUwfi)
                  2001db68    0000000c     tirtosport.aem4 : ClockP_tirtos.oem4 (.text:ClockP_getSystemTickPeriod)
                  2001db74    0000000c     netwifi.o (.text:NetWiFi_isConnected)
                  2001db80    0000000c     drivers_cc32xxware.aem4 : PowerCC3200.oem4 (.text:Power_getConstraintMask)
                  2001db8c    0000000c                             : PowerCC3200.oem4 (.text:Power_getDependencyCount)
                  2001db98    0000000c                             : RingBuf.oem4 (.text:RingBuf_peek)
                  2001dba4    0000000c     netwifi.o (.text:SimpleLinkHttpServerCallback)
                  2001dbb0    0000000c     drivers_cc32xxware.aem4 : UARTCC3200.oem4 (.text:UARTCC3200_init)
                  2001dbbc    0000000c     rtsv7M4_T_le_eabi.lib : copy_zero_init.obj (.text:decompress:ZI)
                  2001dbc8    0000000c     aws_iot_sl.aem4 : network_sl.o (.text:htonl)
                  2001dbd4    0000000c     startsntp.o (.text:htonl)
                  2001dbe0    0000000c     subscribe_publish_sample.o (.text:htonl)
                  2001dbec    0000000c     aws_iot_sl.aem4 : network_sl.o (.text:iot_tls_is_connected)
                  2001dbf8    0000000c     drivers_wifi_cc32xxware.aem4 : osi_tirtos.oem4 (.text:osi_LockObjUnlock)
                  2001dc04    0000000c                                  : osi_tirtos.oem4 (.text:osi_SyncObjSignal)
                  2001dc10    0000000c                                  : osi_tirtos.oem4 (.text:osi_SyncObjSignalFromISR)
                  2001dc1c    0000000c     drivers_cc32xxware.aem4 : SPICC3200DMA.oem4 (.text:postNotifyFxn)
                  2001dc28    0000000c                             : UARTCC3200.oem4 (.text:postNotifyFxn)
                  2001dc34    0000000c     rtsv7M4_T_le_eabi.lib : ctime_.obj (.text)
                  2001dc40    0000000c     subscribe_publish_sample_pem4.oem4 (.text:ti_sysbios_family_arm_m3_Hwi_Params__init__S)
                  2001dc4c    00000004     --HOLE-- [fill = 0]
                  2001dc50    0000000c     sysbios.aem4 : BIOS.obj (.text:ti_sysbios_family_arm_m3_Hwi_disableFxn__E)
                  2001dc5c    00000004     --HOLE-- [fill = 0]
                  2001dc60    0000000c                  : BIOS.obj (.text:ti_sysbios_family_arm_m3_TaskSupport_checkStack__E)
                  2001dc6c    00000004     --HOLE-- [fill = 0]
                  2001dc70    0000000c                  : BIOS.obj (.text:ti_sysbios_family_arm_m3_TaskSupport_getStackAlignment__E)
                  2001dc7c    00000004     --HOLE-- [fill = 0]
                  2001dc80    0000000c                  : BIOS.obj (.text:ti_sysbios_gates_GateHwi_enter__E)
                  2001dc8c    0000000c     subscribe_publish_sample_pem4.oem4 (.text:ti_sysbios_knl_Clock_Params__init__S)
                  2001dc98    0000000c     sysbios.aem4 : BIOS.obj (.text:ti_sysbios_knl_Clock_getTicks__E)
                  2001dca4    00000004     --HOLE-- [fill = 0]
                  2001dca8    0000000c                  : BIOS.obj (.text:ti_sysbios_knl_Clock_setTicks__E)
                  2001dcb4    00000004     --HOLE-- [fill = 0]
                  2001dcb8    0000000c                  : BIOS.obj (.text:ti_sysbios_knl_Clock_tickStart__E)
                  2001dcc4    00000004     --HOLE-- [fill = 0]
                  2001dcc8    0000000c                  : BIOS.obj (.text:ti_sysbios_knl_Clock_tickStop__E)
                  2001dcd4    0000000c     subscribe_publish_sample_pem4.oem4 (.text:ti_sysbios_knl_Queue_Object__get__S)
                  2001dce0    0000000c     subscribe_publish_sample_pem4.oem4 (.text:ti_sysbios_knl_Semaphore_Params__init__S)
                  2001dcec    0000000c     subscribe_publish_sample_pem4.oem4 (.text:ti_sysbios_knl_Task_Params__init__S)
                  2001dcf8    0000000c     driverlib.a : udma.obj (.text:uDMAControlBaseGet)
                  2001dd04    0000000c                 : udma.obj (.text:uDMAEnable)
                  2001dd10    0000000c                 : udma.obj (.text:uDMAErrorStatusClear)
                  2001dd1c    0000000c                 : udma.obj (.text:uDMAIntStatus)
                  2001dd28    0000000c     ti.targets.arm.rtsarm.aem4 : Error.oem4 (.text:xdc_runtime_Error_init__E)
                  2001dd34    0000000c                                : Gate.oem4 (.text:xdc_runtime_Gate_enterSystem__E)
                  2001dd40    0000000c                                : Memory.oem4 (.text:xdc_runtime_Memory_calloc__E)
                  2001dd4c    0000000c                                : Memory.oem4 (.text:xdc_runtime_Memory_getMaxDefaultTypeAlign__E)
                  2001dd58    0000000a     tirtosport.aem4 : ClockP_tirtos.oem4 (.text:ClockP_stop)
                  2001dd62    0000000a     drivers_cc32xxware.aem4 : List.oem4 (.text:List_empty)
                  2001dd6c    0000000a                             : SPI.oem4 (.text:SPI_close)
                  2001dd76    0000000a                             : SPI.oem4 (.text:SPI_transfer)
                  2001dd80    0000000a     tirtosport.aem4 : SemaphoreP_tirtos.oem4 (.text:SemaphoreP_post)
                  2001dd8a    0000000a     netwifi.o (.text:SimpleLinkGeneralEventHandler)
                  2001dd94    0000000a     netwifi.o (.text:SimpleLinkSockEventHandler)
                  2001dd9e    0000000a     drivers_cc32xxware.aem4 : UART.oem4 (.text:UART_close)
                  2001dda8    0000000a                             : UART.oem4 (.text:UART_read)
                  2001ddb2    0000000a                             : UART.oem4 (.text:UART_write)
                  2001ddbc    0000000a                             : UART.oem4 (.text:UART_writePolling)
                  2001ddc6    0000000a                             : WiFi.oem4 (.text:WiFi_close)
                  2001ddd0    0000000a     CC3200_LAUNCHXL.o (.text:dmaErrorHwi)
                  2001ddda    0000000a     drivers_wifi_cc32xxware.aem4 : osi_tirtos.oem4 (.text:osi_LockObjDelete)
                  2001dde4    0000000a                                  : osi_tirtos.oem4 (.text:osi_SyncObjDelete)
                  2001ddee    0000000a     subscribe_publish_sample_pem4.oem4 (.text:xdc_runtime_IHeap_alloc)
                  2001ddf8    0000000a     subscribe_publish_sample_pem4.oem4 (.text:xdc_runtime_IHeap_free)
                  2001de02    00000008     CC3200_LAUNCHXL.o (.text:CC3200_LAUNCHXL_initGPIO)
                  2001de0a    00000008     CC3200_LAUNCHXL.o (.text:CC3200_LAUNCHXL_initUART)
                  2001de12    00000008     tirtosport.aem4 : ClockP_tirtos.oem4 (.text:ClockP_Params_init)
                  2001de1a    00000008     driverlib.a : prcm.obj (.text:PRCMSleepEnter)
                  2001de22    00000008     tirtosport.aem4 : SemaphoreP_tirtos.oem4 (.text:SemaphoreP_Params_init)
                  2001de2a    00000008     cc3x00_host_driver.aem4 : driver.oem4 (.text:_SlDrvMemZero)
                  2001de32    00000008     startsntp.o (.text:getTime)
                  2001de3a    00000008     drivers_cc32xxware.aem4 : UARTCC3200.oem4 (.text:readSemCallback)
                  2001de42    00000008     cc3x00_host_driver.aem4 : wlan.oem4 (.text:sl_WlanDisconnect)
                  2001de4a    00000006                             : socket.oem4 (.text:SL_FD_ZERO)
                  2001de50    00000008     sysbios.aem4 : BIOS.obj (.text:ti_sysbios_family_arm_m3_Hwi_doSwiRestore__I)
                  2001de58    00000008                  : BIOS.obj (.text:ti_sysbios_family_arm_m3_Hwi_startup__E)
                  2001de60    00000008     drivers_cc32xxware.aem4 : SPICC3200DMA.oem4 (.text:transferCallback)
                  2001de68    00000008                             : UARTCC3200.oem4 (.text:writeSemCallback)
                  2001de70    00000008     subscribe_publish_sample_pem4.oem4 (.text:xdc_runtime_Text_visitRope__I)
                  2001de78    00000006     drivers_cc32xxware.aem4 : SPICC3200DMA.oem4 (.text:SPICC3200DMA_control)
                  2001de7e    00000006     driverlib.a : utils.obj (.text:UtilsDelay)
                  2001de84    00000006     drivers_wifi_cc32xxware.aem4 : WiFiCC3200.oem4 (.text:WiFiCC3200_control)
                  2001de8a    00000006     cc3x00_host_driver.aem4 : driver.oem4 (.text:_SlDrvResetCmdExt)
                  2001de90    00000006     ti.targets.arm.rtsarm.aem4 : xdc_noinit.oem4 (.text:__xdc__init)
                  2001de96    00000006     rtsv7M4_T_le_eabi.lib : copy_decompress_rle.obj (.text:decompress:rle24)
                  2001de9c    00000004     --HOLE-- [fill = 0]
                  2001dea0    00000006     sysbios.aem4 : BIOS.obj (.text:ti_sysbios_family_arm_m3_Hwi_doTaskRestore__I)
                  2001dea6    00000002     --HOLE-- [fill = 0]
                  2001dea8    00000006                  : BIOS.obj (.text:ti_sysbios_family_arm_m3_Hwi_restoreFxn__E)
                  2001deae    00000002     --HOLE-- [fill = 0]
                  2001deb0    00000006                  : BIOS.obj (.text:ti_sysbios_gates_GateHwi_leave__E)
                  2001deb6    00000002     --HOLE-- [fill = 0]
                  2001deb8    00000006                  : BIOS.obj (.text:ti_sysbios_heaps_HeapMem_isBlocking__E)
                  2001debe    00000002     --HOLE-- [fill = 0]
                  2001dec0    00000006                  : BIOS.obj (.text:ti_sysbios_knl_Clock_stop__E)
                  2001dec6    00000002     --HOLE-- [fill = 0]
                  2001dec8    00000006                  : BIOS.obj (.text:ti_sysbios_knl_Queue_Instance_init__E)
                  2001dece    00000002     --HOLE-- [fill = 0]
                  2001ded0    00000006                  : BIOS.obj (.text:ti_sysbios_knl_Swi_startup__E)
                  2001ded6    00000006     ti.targets.arm.rtsarm.aem4 : System.oem4 (.text:xdc_runtime_System_Module_startup__E)
                  2001dedc    00000004     --HOLE-- [fill = 0]
                  2001dee0    00000004     sysbios.aem4 : BIOS.obj (.text:ti_sysbios_family_arm_m3_Timer_getMaxTicks__E)
                  2001dee4    00000004     --HOLE-- [fill = 0]
                  2001dee8    00000004                  : BIOS.obj (.text:ti_sysbios_gates_GateHwi_query__E)
                  2001deec    00000004     --HOLE-- [fill = 0]
                  2001def0    00000004                  : BIOS.obj (.text:ti_sysbios_gates_GateMutex_query__E)
                  2001def4    00000004     --HOLE-- [fill = 0]
                  2001def8    00000004                  : BIOS.obj (.text:ti_sysbios_knl_Clock_setTimeout__E)
                  2001defc    00000004     --HOLE-- [fill = 0]
                  2001df00    00000004                  : BIOS.obj (.text:ti_sysbios_knl_Task_startup__E)
                  2001df04    00000004     --HOLE-- [fill = 0]
                  2001df08    00000002                  : BIOS.obj (.text:ti_sysbios_gates_GateHwi_Instance_init__E)
                  2001df0a    00000006     --HOLE-- [fill = 0]
                  2001df10    00000002                  : BIOS.obj (.text:ti_sysbios_knl_Clock_logTick__E)

.bss       0    2001e000    0000b293     UNINITIALIZED
                  2001e000    00008000     subscribe_publish_sample_pem4.oem4 (.bss:ti_sysbios_heaps_HeapMem_Instance_State_0_buf__A)
                  20026000    00000800     subscribe_publish_sample_pem4.oem4 (.bss:taskStackSection)
                  20026800    000005b8     subscribe_publish_sample.o (.bss:g_buff)
                  20026db8    000005a0     ota.a : OtaHttp.obj (.bss:recv_buf)
                  20027358    0000044c           : OtaClient.obj (.bss:g_OtaCheckUpdateResponse)
                  200277a4    0000004c           : OtaApp.obj (.bss:g_OtaApp)
                  200277f0    00000010     (.common:HOST_NAME)
                  20027800    00000400     CC3200_LAUNCHXL.o (.bss:dmaControlTable)
                  20027c00    000003d8     ota.a : OtaClient.obj (.bss:g_OtaFileMetadata)
                  20027fd8    0000030c     subscribe_publish_sample_pem4.oem4 (.bss:ti_sysbios_family_arm_m3_Hwi_dispatchTable)
                  200282e4    00000240     subscribe_publish_sample.o (.bss:g_otaOptServerInfo)
                  20028524    00000200     ota.a : OtaHttp.obj (.bss:send_buf)
                  20028724    00000190     subscribe_publish_sample.o (.bss:philipsbulbstatus)
                  200288b4    0000012c     drivers_cc32xxware.aem4 : PowerCC3200.oem4 (.bss:PowerCC3200_contextSave)
                  200289e0    00000120     rtsv7M4_T_le_eabi.lib : trgmsg.obj (.bss:__CIOBUF_)
                  20028b00    00000108     CC3200_LAUNCHXL.o (.bss:uartCC3200Objects)
                  20028c08    000000a0     rtsv7M4_T_le_eabi.lib : defs.obj (.bss:__TI_tmpnams)
                  20028ca8    00000098     subscribe_publish_sample.o (.bss:belkin_uri)
                  20028d40    00000078     CC3200_LAUNCHXL.o (.bss:SPICC3200DMAObjects)
                  20028db8    00000074     ota.a : CdnClient.obj (.bss:g_CdnClient)
                  20028e2c    00000064     subscribe_publish_sample.o (.bss:dexterpistring)
                  20028e90    00000064     subscribe_publish_sample.o (.bss:philips_request_uri)
                  20028ef4    00000064     subscribe_publish_sample.o (.bss:timeslap)
                  20028f58    0000004c     ota.a : OtaApp.obj (.bss:g_OtaApp_statistics)
                  20028fa4    00000040     CC3200_LAUNCHXL.o (.bss:uartCC3200RingBuffer)
                  20028fe4    00000034     subscribe_publish_sample.o (.bss:PUT_DATA)
                  20029018    00000030     CC3200_LAUNCHXL.o (.bss:wiFiCC3200Objects)
                  20029048    0000002c     subscribe_publish_sample.o (.bss:philips_id)
                  20029074    00000028     subscribe_publish_sample.o (.bss:Power1)
                  2002909c    00000028     subscribe_publish_sample.o (.bss:Power2)
                  200290c4    00000028     subscribe_publish_sample.o (.bss:Power3)
                  200290ec    00000028     subscribe_publish_sample.o (.bss:Power4)
                  20029114    00000024     ota.a : OtaClient.obj (.bss:g_OtaClient)
                  20029138    00000020     (.common:gpioCallbackInfo)
                  20029158    0000001c     rtsv7M4_T_le_eabi.lib : vla_alloc.obj (.bss)
                  20029174    0000001c     (.common:time_buf)
                  20029190    00000014     (.common:DeviceID)
                  200291a4    00000014     (.common:belkinstatus)
                  200291b8    00000014     (.common:g_FlcSflashCb)
                  200291cc    00000014     (.common:powerNotifyObj)
                  200291e0    00000014     (.common:ucVendorStr)
                  200291f4    00000010     (.common:ntpServers)
                  20029204    00000010     (.common:philips_uri)
                  20029214    0000000c     (.common:tstr_out)
                  20029220    0000000c     (.common:userid)
                  2002922c    00000004     (.common:OptionLen)
                  20029230    00000008     (.common:firstRTC$1)
                  20029238    00000008     (.common:g_LogClient)
                  20029240    00000008     (.common:parmbuf)
                  20029248    00000008     (.common:sBootInfo)
                  20029250    00000004     (.common:SimpleLinkSpawnTaskHndl)
                  20029254    00000004     (.common:bulbnumber)
                  20029258    00000004     (.common:currButton)
                  2002925c    00000004     (.common:firstTick$2)
                  20029260    00000008     (.common:spiCC3200DMAscratchBuf)
                  20029268    00000004     (.common:g_ulDestinationIP)
                  2002926c    00000004     (.common:id_len)
                  20029270    00000004     (.common:noOfToken)
                  20029274    00000004     (.common:philipsbulbid)
                  20029278    00000004     (.common:prevButton)
                  2002927c    00000004     (.common:pvOtaApp)
                  20029280    00000004     (.common:simpleLink_mailbox)
                  20029284    00000004     (.common:size)
                  20029288    00000004     (.common:tokenList)
                  2002928c    00000004     (.common:uiChannel)
                  20029290    00000001     (.common:OptionVal)
                  20029291    00000001     (.common:RxIrqCnt)
                  20029292    00000001     (.common:myawstask_status)

.const     0    20029294    000013f3     
                  20029294    000003cc     subscribe_publish_sample.o (.const:.string)
                  20029660    00000101     rtsv7M4_T_le_eabi.lib : ctype.obj (.const:.string:_ctypes_)
                  20029761    00000001     subscribe_publish_sample_pem4.oem4 (.const:ti_sysbios_knl_Clock_tickMode__C)
                  20029762    00000002     subscribe_publish_sample_pem4.oem4 (.const:ti_sysbios_family_arm_m3_Hwi_Module__id__C)
                  20029764    00000100     driverlib.a : pin.obj (.const:g_ulPinToPadMap)
                  20029864    000000b0     cc3x00_host_driver.aem4 : wlan.oem4 (.const:$P$T0$1)
                  20029914    000000a8     driverlib.a : prcm.obj (.const:PRCM_PeriphRegsList)
                  200299bc    00000090     subscribe_publish_sample.o (.const)
                  20029a4c    00000068     CC3200_LAUNCHXL.o (.const:spiCC3200DMAHWAttrs)
                  20029ab4    00000060     drivers_cc32xxware.aem4 : SPICC3200DMA.oem4 (.const)
                  20029b14    00000060     rtsv7M4_T_le_eabi.lib : mktime.obj (.const)
                  20029b74    0000004c                           : asctime.obj (.const:.string)
                  20029bc0    0000004c     drivers_cc32xxware.aem4 : UARTCC3200.oem4 (.const)
                  20029c0c    0000004c     rtsv7M4_T_le_eabi.lib : asctime.obj (.const)
                  20029c58    00000048     subscribe_publish_sample_pem4.oem4 (.const:.string)
                  20029ca0    0000003c     cc3x00_host_driver.aem4 : driver.oem4 (.const:OpcodeTranslateTable)
                  20029cdc    0000003c                             : wlan.oem4 (.const)
                  20029d18    0000003c     subscribe_publish_sample_pem4.oem4 (.const:ti_sysbios_knl_Task_Object__PARAMS__C)
                  20029d54    00000038     aws_iot_sl.aem4 : aws_iot_mqtt_client.o (.const:$P$T0$1)
                  20029d8c    00000038     cc3x00_host_driver.aem4 : driver.oem4 (.const:_SlActionLookupTable)
                  20029dc4    00000038                             : fs.oem4 (.const)
                  20029dfc    00000038     aws_iot_sl.aem4 : aws_iot_mqtt_client.o (.const:iotClientConnectParamsDefault)
                  20029e34    00000034     cc3x00_host_driver.aem4 : socket.oem4 (.const)
                  20029e68    00000034     drivers_cc32xxware.aem4 : GPIOCC3200.oem4 (.const)
                  20029e9c    00000034     subscribe_publish_sample_pem4.oem4 (.const:ti_sysbios_knl_Mailbox_Object__PARAMS__C)
                  20029ed0    00000030     subscribe_publish_sample_pem4.oem4 (.const:ti_sysbios_family_arm_m3_Hwi_Object__PARAMS__C)
                  20029f00    00000030     CC3200_LAUNCHXL.o (.const:uartCC3200HWAttrs)
                  20029f30    0000002c     aws_iot_sl.aem4 : aws_iot_mqtt_client.o (.const:iotClientInitParamsDefault)
                  20029f5c    0000002a     drivers_cc32xxware.aem4 : GPIOCC3200.oem4 (.const:.string)
                  20029f86    00000002     subscribe_publish_sample_pem4.oem4 (.const:ti_sysbios_family_arm_m3_Timer_Module__id__C)
                  20029f88    00000028     subscribe_publish_sample.o (.const:$P$T10$7)
                  20029fb0    00000028     subscribe_publish_sample.o (.const:$P$T11$8)
                  20029fd8    00000028     CC3200_LAUNCHXL.o (.const:PowerCC3200_config)
                  2002a000    00000028     drivers_cc32xxware.aem4 : UARTCC3200.oem4 (.const:UARTCC3200_fxnTable)
                  2002a028    00000028     cc3x00_host_driver.aem4 : netapp.oem4 (.const)
                  2002a050    00000028     subscribe_publish_sample_pem4.oem4 (.const:ti_sysbios_heaps_HeapMem_Module__FXNS__C)
                  2002a078    00000024     CC3200_LAUNCHXL.o (.const:SPI_config)
                  2002a09c    00000024     CC3200_LAUNCHXL.o (.const:UART_config)
                  2002a0c0    00000024     drivers_cc32xxware.aem4 : UART.oem4 (.const:UART_defaultParams)
                  2002a0e4    00000024     cc3x00_host_driver.aem4 : driver.oem4 (.const)
                  2002a108    00000024     subscribe_publish_sample_pem4.oem4 (.const:ti_sysbios_gates_GateHwi_Module__FXNS__C)
                  2002a12c    00000024     subscribe_publish_sample_pem4.oem4 (.const:ti_sysbios_gates_GateMutex_Module__FXNS__C)
                  2002a150    00000024     subscribe_publish_sample_pem4.oem4 (.const:ti_sysbios_heaps_HeapMem_Object__PARAMS__C)
                  2002a174    00000024     subscribe_publish_sample_pem4.oem4 (.const:ti_sysbios_knl_Clock_Object__PARAMS__C)
                  2002a198    00000024     subscribe_publish_sample_pem4.oem4 (.const:ti_sysbios_knl_Semaphore_Object__PARAMS__C)
                  2002a1bc    00000021     aws_iot_sl.aem4 : aws_iot_mqtt_client.o (.const:.string:$P$T1$2)
                  2002a1dd    00000021                     : aws_iot_mqtt_client.o (.const:.string:$P$T2$3)
                  2002a1fe    00000002     subscribe_publish_sample_pem4.oem4 (.const:ti_sysbios_hal_Hwi_Module__id__C)
                  2002a200    00000020     drivers_cc32xxware.aem4 : SPI.oem4 (.const)
                  2002a220    00000020     subscribe_publish_sample_pem4.oem4 (.const:ti_sysbios_family_arm_m3_Hwi_Object__DESC__C)
                  2002a240    00000020     subscribe_publish_sample_pem4.oem4 (.const:ti_sysbios_gates_GateHwi_Object__DESC__C)
                  2002a260    00000020     subscribe_publish_sample_pem4.oem4 (.const:ti_sysbios_gates_GateMutex_Object__DESC__C)
                  2002a280    00000020     subscribe_publish_sample_pem4.oem4 (.const:ti_sysbios_heaps_HeapMem_Object__DESC__C)
                  2002a2a0    00000020     subscribe_publish_sample_pem4.oem4 (.const:ti_sysbios_knl_Clock_Object__DESC__C)
                  2002a2c0    00000020     subscribe_publish_sample_pem4.oem4 (.const:ti_sysbios_knl_Event_Object__DESC__C)
                  2002a2e0    00000020     subscribe_publish_sample_pem4.oem4 (.const:ti_sysbios_knl_Mailbox_Object__DESC__C)
                  2002a300    00000020     subscribe_publish_sample_pem4.oem4 (.const:ti_sysbios_knl_Queue_Object__DESC__C)
                  2002a320    00000020     subscribe_publish_sample_pem4.oem4 (.const:ti_sysbios_knl_Semaphore_Object__DESC__C)
                  2002a340    00000020     subscribe_publish_sample_pem4.oem4 (.const:ti_sysbios_knl_Task_Object__DESC__C)
                  2002a360    00000020     subscribe_publish_sample_pem4.oem4 (.const:xdc_runtime_Startup_sfxnTab__A)
                  2002a380    00000018     CC3200_LAUNCHXL.o (.const:WiFi_config)
                  2002a398    00000018     driverlib.a : spi.obj (.const)
                  2002a3b0    00000018     subscribe_publish_sample_pem4.oem4 (.const:ti_sysbios_gates_GateHwi_Object__PARAMS__C)
                  2002a3c8    00000018     subscribe_publish_sample_pem4.oem4 (.const:ti_sysbios_gates_GateMutex_Object__PARAMS__C)
                  2002a3e0    00000018     subscribe_publish_sample_pem4.oem4 (.const:ti_sysbios_knl_Event_Object__PARAMS__C)
                  2002a3f8    00000018     subscribe_publish_sample_pem4.oem4 (.const:ti_sysbios_knl_Queue_Object__PARAMS__C)
                  2002a410    00000014     CC3200_LAUNCHXL.o (.const:GPIOCC3200_config)
                  2002a424    00000014     cc3x00_host_driver.aem4 : device.oem4 (.const)
                  2002a438    00000010                             : socket.oem4 (.const:.string)
                  2002a448    00000010     aws_iot_sl.aem4 : aws_iot_mqtt_client_connect.o (.const)
                  2002a458    00000010                     : aws_iot_mqtt_client_publish.o (.const)
                  2002a468    00000010     drivers_wifi_cc32xxware.aem4 : WiFiCC3200.oem4 (.const)
                  2002a478    00000010     startsntp.o (.const)
                  2002a488    00000010     subscribe_publish_sample_pem4.oem4 (.const:xdc_runtime_Startup_sfxnRts__A)
                  2002a498    0000000c     drivers_cc32xxware.aem4 : WiFi.oem4 (.const)
                  2002a4a4    0000000c     netwifi.o (.const)
                  2002a4b0    0000000c     subscribe_publish_sample_pem4.oem4 (.const:xdc_runtime_Startup_firstFxns__A)
                  2002a4bc    00000008     cc3x00_host_driver.aem4 : device.oem4 (.const:.string)
                  2002a4c4    00000008     aws_iot_sl.aem4 : aws_iot_mqtt_client_common_internal.o (.const)
                  2002a4cc    00000008                     : aws_iot_mqtt_client_subscribe.o (.const)
                  2002a4d4    00000008     cc3x00_host_driver.aem4 : netcfg.oem4 (.const)
                  2002a4dc    00000008     subscribe_publish_sample_pem4.oem4 (.const:ti_sysbios_family_arm_m3_Hwi_excHookFuncs__A)
                  2002a4e4    00000008     subscribe_publish_sample_pem4.oem4 (.const:ti_sysbios_knl_Idle_funcList__A)
                  2002a4ec    00000008     subscribe_publish_sample_pem4.oem4 (.const:ti_sysbios_knl_Idle_funcList__C)
                  2002a4f4    00000008     subscribe_publish_sample_pem4.oem4 (.const:xdc_runtime_Startup_firstFxns__C)
                  2002a4fc    00000008     subscribe_publish_sample_pem4.oem4 (.const:xdc_runtime_Startup_lastFxns__C)
                  2002a504    00000004     subscribe_publish_sample_pem4.oem4 (.const:ti_sysbios_family_arm_m3_Hwi_E_NMI__C)
                  2002a508    00000004     subscribe_publish_sample_pem4.oem4 (.const:ti_sysbios_family_arm_m3_Hwi_E_alreadyDefined__C)
                  2002a50c    00000004     subscribe_publish_sample_pem4.oem4 (.const:ti_sysbios_family_arm_m3_Hwi_E_busFault__C)
                  2002a510    00000004     subscribe_publish_sample_pem4.oem4 (.const:ti_sysbios_family_arm_m3_Hwi_E_debugMon__C)
                  2002a514    00000004     subscribe_publish_sample_pem4.oem4 (.const:ti_sysbios_family_arm_m3_Hwi_E_hardFault__C)
                  2002a518    00000004     subscribe_publish_sample_pem4.oem4 (.const:ti_sysbios_family_arm_m3_Hwi_E_memFault__C)
                  2002a51c    00000004     subscribe_publish_sample_pem4.oem4 (.const:ti_sysbios_family_arm_m3_Hwi_E_noIsr__C)
                  2002a520    00000004     subscribe_publish_sample_pem4.oem4 (.const:ti_sysbios_family_arm_m3_Hwi_E_reserved__C)
                  2002a524    00000004     subscribe_publish_sample_pem4.oem4 (.const:ti_sysbios_family_arm_m3_Hwi_E_svCall__C)
                  2002a528    00000004     subscribe_publish_sample_pem4.oem4 (.const:ti_sysbios_family_arm_m3_Hwi_E_usageFault__C)
                  2002a52c    00000004     subscribe_publish_sample_pem4.oem4 (.const:ti_sysbios_family_arm_m3_Hwi_NUM_INTERRUPTS__C)
                  2002a530    00000004     subscribe_publish_sample_pem4.oem4 (.const:ti_sysbios_family_arm_m3_Hwi_Object__count__C)
                  2002a534    00000004     subscribe_publish_sample_pem4.oem4 (.const:ti_sysbios_family_arm_m3_Hwi_ccr__C)
                  2002a538    00000004     subscribe_publish_sample_pem4.oem4 (.const:ti_sysbios_family_arm_m3_Hwi_excHandlerFunc__C)
                  2002a53c    00000004     subscribe_publish_sample_pem4.oem4 (.const:ti_sysbios_family_arm_m3_Hwi_excHookFuncs__C)
                  2002a540    00000004     subscribe_publish_sample_pem4.oem4 (.const:ti_sysbios_family_arm_m3_Hwi_nullIsrFunc__C)
                  2002a544    00000004     subscribe_publish_sample_pem4.oem4 (.const:ti_sysbios_family_arm_m3_Hwi_priGroup__C)
                  2002a548    00000004     subscribe_publish_sample_pem4.oem4 (.const:ti_sysbios_family_arm_m3_TaskSupport_stackAlignment__C)
                  2002a54c    00000004     subscribe_publish_sample_pem4.oem4 (.const:ti_sysbios_family_arm_m3_Timer_E_cannotSupport__C)
                  2002a550    00000004     subscribe_publish_sample_pem4.oem4 (.const:ti_sysbios_family_arm_m3_Timer_startupNeeded__C)
                  2002a554    00000004     subscribe_publish_sample_pem4.oem4 (.const:ti_sysbios_gates_GateMutex_Instance_State_sem__O)
                  2002a558    00000004     subscribe_publish_sample_pem4.oem4 (.const:ti_sysbios_hal_Hwi_E_stackOverflow__C)
                  2002a55c    00000004     subscribe_publish_sample_pem4.oem4 (.const:ti_sysbios_heaps_HeapMem_E_memory__C)
                  2002a560    00000004     subscribe_publish_sample_pem4.oem4 (.const:ti_sysbios_heaps_HeapMem_Module__gateObj__C)
                  2002a564    00000004     subscribe_publish_sample_pem4.oem4 (.const:ti_sysbios_heaps_HeapMem_Object__count__C)
                  2002a568    00000004     subscribe_publish_sample_pem4.oem4 (.const:ti_sysbios_heaps_HeapMem_reqAlign__C)
                  2002a56c    00000004     subscribe_publish_sample_pem4.oem4 (.const:ti_sysbios_knl_Clock_Module_State_clockQ__O)
                  2002a570    00000004     subscribe_publish_sample_pem4.oem4 (.const:ti_sysbios_knl_Clock_tickPeriod__C)
                  2002a574    00000004     subscribe_publish_sample_pem4.oem4 (.const:ti_sysbios_knl_Event_Instance_State_pendQ__O)
                  2002a578    00000004     subscribe_publish_sample_pem4.oem4 (.const:ti_sysbios_knl_Mailbox_Instance_State_dataQue__O)
                  2002a57c    00000004     subscribe_publish_sample_pem4.oem4 (.const:ti_sysbios_knl_Mailbox_Instance_State_dataSem__O)
                  2002a580    00000004     subscribe_publish_sample_pem4.oem4 (.const:ti_sysbios_knl_Mailbox_Instance_State_freeQue__O)
                  2002a584    00000004     subscribe_publish_sample_pem4.oem4 (.const:ti_sysbios_knl_Mailbox_Instance_State_freeSem__O)
                  2002a588    00000004     subscribe_publish_sample_pem4.oem4 (.const:ti_sysbios_knl_Mailbox_Object__count__C)
                  2002a58c    00000004     subscribe_publish_sample_pem4.oem4 (.const:ti_sysbios_knl_Mailbox_maxTypeAlign__C)
                  2002a590    00000004     subscribe_publish_sample_pem4.oem4 (.const:ti_sysbios_knl_Semaphore_Instance_State_pendQ__O)
                  2002a594    00000004     subscribe_publish_sample_pem4.oem4 (.const:ti_sysbios_knl_Swi_Object__count__C)
                  2002a598    00000004     subscribe_publish_sample_pem4.oem4 (.const:ti_sysbios_knl_Task_E_spOutOfBounds__C)
                  2002a59c    00000004     subscribe_publish_sample_pem4.oem4 (.const:ti_sysbios_knl_Task_E_stackOverflow__C)
                  2002a5a0    00000004     subscribe_publish_sample_pem4.oem4 (.const:ti_sysbios_knl_Task_Module_State_inactiveQ__O)
                  2002a5a4    00000004     subscribe_publish_sample_pem4.oem4 (.const:ti_sysbios_knl_Task_Object__count__C)
                  2002a5a8    00000004     subscribe_publish_sample_pem4.oem4 (.const:ti_sysbios_knl_Task_allBlockedFunc__C)
                  2002a5ac    00000004     subscribe_publish_sample_pem4.oem4 (.const:ti_sysbios_knl_Task_defaultStackHeap__C)
                  2002a5b0    00000004     subscribe_publish_sample_pem4.oem4 (.const:ti_sysbios_knl_Task_defaultStackSize__C)
                  2002a5b4    00000004     subscribe_publish_sample_pem4.oem4 (.const:ti_sysbios_knl_Task_numConstructedTasks__C)
                  2002a5b8    00000004     CC3200_LAUNCHXL.o (.const:wiFiCC3200HWAttrs)
                  2002a5bc    00000004     subscribe_publish_sample_pem4.oem4 (.const:xdc_runtime_Assert_E_assertFailed__C)
                  2002a5c0    00000004     subscribe_publish_sample_pem4.oem4 (.const:xdc_runtime_Core_A_initializedParams__C)
                  2002a5c4    00000004     subscribe_publish_sample_pem4.oem4 (.const:xdc_runtime_Core_Module__diagsEnabled__C)
                  2002a5c8    00000004     subscribe_publish_sample_pem4.oem4 (.const:xdc_runtime_Core_Module__diagsIncluded__C)
                  2002a5cc    00000004     subscribe_publish_sample_pem4.oem4 (.const:xdc_runtime_Core_Module__diagsMask__C)
                  2002a5d0    00000004     subscribe_publish_sample_pem4.oem4 (.const:xdc_runtime_Error_E_memory__C)
                  2002a5d4    00000004     subscribe_publish_sample_pem4.oem4 (.const:xdc_runtime_Error_Module__diagsEnabled__C)
                  2002a5d8    00000004     subscribe_publish_sample_pem4.oem4 (.const:xdc_runtime_Error_Module__diagsIncluded__C)
                  2002a5dc    00000004     subscribe_publish_sample_pem4.oem4 (.const:xdc_runtime_Error_Module__diagsMask__C)
                  2002a5e0    00000004     subscribe_publish_sample_pem4.oem4 (.const:xdc_runtime_Error_Module__loggerFxn8__C)
                  2002a5e4    00000004     subscribe_publish_sample_pem4.oem4 (.const:xdc_runtime_Error_Module__loggerObj__C)
                  2002a5e8    00000004     subscribe_publish_sample_pem4.oem4 (.const:xdc_runtime_Error_policyFxn__C)
                  2002a5ec    00000004     subscribe_publish_sample_pem4.oem4 (.const:xdc_runtime_Error_raiseHook__C)
                  2002a5f0    00000004     subscribe_publish_sample_pem4.oem4 (.const:xdc_runtime_IGateProvider_Interface__BASE__C)
                  2002a5f4    00000004     subscribe_publish_sample_pem4.oem4 (.const:xdc_runtime_IHeap_Interface__BASE__C)
                  2002a5f8    00000004     subscribe_publish_sample_pem4.oem4 (.const:xdc_runtime_IModule_Interface__BASE__C)
                  2002a5fc    00000004     subscribe_publish_sample_pem4.oem4 (.const:xdc_runtime_Log_L_error__C)
                  2002a600    00000004     subscribe_publish_sample_pem4.oem4 (.const:xdc_runtime_Main_Module__diagsEnabled__C)
                  2002a604    00000004     subscribe_publish_sample_pem4.oem4 (.const:xdc_runtime_Main_Module__diagsIncluded__C)
                  2002a608    00000004     subscribe_publish_sample_pem4.oem4 (.const:xdc_runtime_Main_Module__diagsMask__C)
                  2002a60c    00000004     subscribe_publish_sample_pem4.oem4 (.const:xdc_runtime_Main_Module__loggerFxn2__C)
                  2002a610    00000004     subscribe_publish_sample_pem4.oem4 (.const:xdc_runtime_Main_Module__loggerFxn4__C)
                  2002a614    00000004     subscribe_publish_sample_pem4.oem4 (.const:xdc_runtime_Main_Module__loggerObj__C)
                  2002a618    00000004     subscribe_publish_sample_pem4.oem4 (.const:xdc_runtime_Memory_defaultHeapInstance__C)
                  2002a61c    00000004     subscribe_publish_sample_pem4.oem4 (.const:xdc_runtime_Startup_execImpl__C)
                  2002a620    00000004     subscribe_publish_sample_pem4.oem4 (.const:xdc_runtime_Startup_maxPasses__C)
                  2002a624    00000004     subscribe_publish_sample_pem4.oem4 (.const:xdc_runtime_Startup_sfxnRts__C)
                  2002a628    00000004     subscribe_publish_sample_pem4.oem4 (.const:xdc_runtime_Startup_sfxnTab__C)
                  2002a62c    00000004     subscribe_publish_sample_pem4.oem4 (.const:xdc_runtime_SysCallback_abortFxn__C)
                  2002a630    00000004     subscribe_publish_sample_pem4.oem4 (.const:xdc_runtime_SysCallback_exitFxn__C)
                  2002a634    00000004     subscribe_publish_sample_pem4.oem4 (.const:xdc_runtime_SysCallback_flushFxn__C)
                  2002a638    00000004     subscribe_publish_sample_pem4.oem4 (.const:xdc_runtime_SysCallback_putchFxn__C)
                  2002a63c    00000004     subscribe_publish_sample_pem4.oem4 (.const:xdc_runtime_SysCallback_readyFxn__C)
                  2002a640    00000004     subscribe_publish_sample_pem4.oem4 (.const:xdc_runtime_System_Module__gateObj__C)
                  2002a644    00000004     subscribe_publish_sample_pem4.oem4 (.const:xdc_runtime_System_abortFxn__C)
                  2002a648    00000004     subscribe_publish_sample_pem4.oem4 (.const:xdc_runtime_System_exitFxn__C)
                  2002a64c    00000004     subscribe_publish_sample_pem4.oem4 (.const:xdc_runtime_System_extendFxn__C)
                  2002a650    00000004     subscribe_publish_sample_pem4.oem4 (.const:xdc_runtime_System_maxAtexitHandlers__C)
                  2002a654    00000004     subscribe_publish_sample_pem4.oem4 (.const:xdc_runtime_Text_charTab__C)
                  2002a658    00000004     subscribe_publish_sample_pem4.oem4 (.const:xdc_runtime_Text_nameEmpty__C)
                  2002a65c    00000004     subscribe_publish_sample_pem4.oem4 (.const:xdc_runtime_Text_nameStatic__C)
                  2002a660    00000004     subscribe_publish_sample_pem4.oem4 (.const:xdc_runtime_Text_nameUnknown__C)
                  2002a664    00000004     subscribe_publish_sample_pem4.oem4 (.const:xdc_runtime_Text_nodeTab__A)
                  2002a668    00000004     subscribe_publish_sample_pem4.oem4 (.const:xdc_runtime_Text_visitRopeFxn__C)
                  2002a66c    00000002     subscribe_publish_sample_pem4.oem4 (.const:ti_sysbios_heaps_HeapMem_Module__id__C)
                  2002a66e    00000002     subscribe_publish_sample_pem4.oem4 (.const:ti_sysbios_knl_Task_Module__id__C)
                  2002a670    00000002     subscribe_publish_sample_pem4.oem4 (.const:xdc_runtime_Core_Module__id__C)
                  2002a672    00000002     subscribe_publish_sample_pem4.oem4 (.const:xdc_runtime_Error_Module__loggerDefined__C)
                  2002a674    00000002     subscribe_publish_sample_pem4.oem4 (.const:xdc_runtime_Error_maxDepth__C)
                  2002a676    00000002     subscribe_publish_sample_pem4.oem4 (.const:xdc_runtime_Main_Module__id__C)
                  2002a678    00000002     subscribe_publish_sample_pem4.oem4 (.const:xdc_runtime_Main_Module__loggerDefined__C)
                  2002a67a    00000002     subscribe_publish_sample_pem4.oem4 (.const:xdc_runtime_Memory_Module__id__C)
                  2002a67c    00000002     subscribe_publish_sample_pem4.oem4 (.const:xdc_runtime_Text_charCnt__C)
                  2002a67e    00000002     subscribe_publish_sample_pem4.oem4 (.const:xdc_runtime_Text_isLoaded__C)
                  2002a680    00000002     subscribe_publish_sample_pem4.oem4 (.const:xdc_runtime_Text_registryModsLastId__C)
                  2002a682    00000002     subscribe_publish_sample_pem4.oem4 (.const:xdc_runtime_Text_unnamedModsLastId__C)
                  2002a684    00000001     subscribe_publish_sample_pem4.oem4 (.const:ti_sysbios_knl_Clock_tickSource__C)
                  2002a685    00000001     subscribe_publish_sample_pem4.oem4 (.const:xdc_runtime_Error_policy__C)
                  2002a686    00000001     subscribe_publish_sample_pem4.oem4 (.const:xdc_runtime_Text_charTab__A)

.cinit     0    2002b558    00000558     
                  2002b558    00000533     (.cinit..data.load) [load image, compression = rle]
                  2002ba8b    00000001     --HOLE-- [fill = 0]
                  2002ba8c    0000000c     (__TI_handler_table)
                  2002ba98    00000008     (.cinit..bss.load) [load image, compression = zero_init]
                  2002baa0    00000010     (__TI_cinit_table)

.init_array 
*          0    20004000    00000000     UNINITIALIZED

.data      0    2002a688    00000ad0     UNINITIALIZED
                  2002a688    00000204     subscribe_publish_sample.o (.data)
                  2002a88c    00000130     subscribe_publish_sample_pem4.oem4 (.data)
                  2002a9bc    000000ff     subscribe_publish_sample.o (.data:HostAddress)
                  2002aabb    00000001     network_sl.aem4 : tls_sl.oem4 (.data)
                  2002aabc    000000f0     rtsv7M4_T_le_eabi.lib : defs.obj (.data:_ftable)
                  2002abac    000000d0                           : lowlev.obj (.data)
                  2002ac7c    000000b0                           : signal.obj (.data:sigtable)
                  2002ad2c    00000004     drivers_cc32xxware.aem4 : SPI.oem4 (.data)
                  2002ad30    00000080     rtsv7M4_T_le_eabi.lib : xvalues.obj (.data)
                  2002adb0    00000080     subscribe_publish_sample_pem4.oem4 (.data:ti_sysbios_knl_Swi_Module_State_0_readyQ__A)
                  2002ae30    00000054     drivers_cc32xxware.aem4 : PowerCC3200.oem4 (.data:PowerCC3200_module)
                  2002ae84    0000004c     subscribe_publish_sample_pem4.oem4 (.data:ti_sysbios_knl_Task_Object__table__V)
                  2002aed0    00000044     subscribe_publish_sample_pem4.oem4 (.data:ti_sysbios_knl_Task_Module__state__V)
                  2002af14    00000038     subscribe_publish_sample_pem4.oem4 (.data:ti_sysbios_gates_GateMutex_Object__table__V)
                  2002af4c    00000034     subscribe_publish_sample_pem4.oem4 (.data:ti_sysbios_family_arm_m3_Hwi_Module__state__V)
                  2002af80    00000030     sntp_sl.aem4 : sntp.oem4 (.data)
                  2002afb0    00000030     subscribe_publish_sample_pem4.oem4 (.data:ti_sysbios_family_arm_m3_Timer_Object__table__V)
                  2002afe0    00000030     subscribe_publish_sample_pem4.oem4 (.data:ti_sysbios_knl_Swi_Object__table__V)
                  2002b010    0000002c     subscribe_publish_sample_pem4.oem4 (.data:ti_sysbios_knl_Clock_Module__state__V)
                  2002b03c    00000024     rtsv7M4_T_le_eabi.lib : localtim.obj (.data:local_tm)
                  2002b060    00000024     subscribe_publish_sample_pem4.oem4 (.data:ti_sysbios_BIOS_Module__state__V)
                  2002b084    00000019     cc3x00_host_driver.aem4 : driver.oem4 (.data)
                  2002b09d    00000001     power_cc3200_tirtos.aem4 : PowerCC3200_tirtos.oem4 (.data)
                  2002b09e    00000002     --HOLE--
                  2002b0a0    00000018     CC3200_LAUNCHXL.o (.data)
                  2002b0b8    00000018     UARTUtils.o (.data)
                  2002b0d0    00000014     startsntp.o (.data)
                  2002b0e4    00000010     netwifi.o (.data)
                  2002b0f4    00000010     rtsv7M4_T_le_eabi.lib : defs.obj (.data)
                  2002b104    00000010                           : tmzone.obj (.data)
                  2002b114    00000008     drivers_cc32xxware.aem4 : GPIOCC3200.oem4 (.data)
                  2002b11c    00000008     rtsv7M4_T_le_eabi.lib : _lock.obj (.data)
                  2002b124    00000008                           : exit.obj (.data)
                  2002b12c    00000008                           : feraiseexcept.obj (.data)
                  2002b134    00000004     drivers_cc32xxware.aem4 : SPICC3200DMA.oem4 (.data)
                  2002b138    00000004                             : UART.oem4 (.data)
                  2002b13c    00000004                             : WiFi.oem4 (.data)
                  2002b140    00000004     drivers_wifi_cc32xxware.aem4 : WiFiCC3200.oem4 (.data)
                  2002b144    00000004     ota.a : OtaHttp.obj (.data)
                  2002b148    00000004     rtsv7M4_T_le_eabi.lib : errno.obj (.data)
                  2002b14c    00000004                           : fopen.obj (.data)
                  2002b150    00000004                           : stkdepth_vars.obj (.data)
                  2002b154    00000004                           : strtok.obj (.data)

.stack     0    2002b158    00000400     UNINITIALIZED
                  2002b158    00000400     --HOLE--

.bootVecs 
*          0    00000000    00000008     DSECT
                  00000000    00000008     boot.aem4 : boot.oem4 (.bootVecs)

.vecs      0    20004000    00000000     DSECT

.resetVecs 
*          0    20004000    0000030c     
                  20004000    0000030c     subscribe_publish_sample_pem4.oem4 (.resetVecs)

xdc.meta   0    00000000    0000016b     COPY SECTION
                  00000000    0000016b     subscribe_publish_sample_pem4.oem4 (xdc.meta)

xdc.noload 
*          0    00000000    00000000     COPY SECTION

.TI.noinit 
*          0    2001e000    00000000     UNINITIALIZED

.TI.persistent 
*          0    2002a688    00000000     UNINITIALIZED


LINKER GENERATED COPY TABLES

__TI_cinit_table @ 2002baa0 records: 2, size/record: 8, table size: 16
	.data: load addr=2002b558, load size=00000533 bytes, run addr=2002a688, run size=00000ad0 bytes, compression=rle
	.bss: load addr=2002ba98, load size=00000008 bytes, run addr=2001e000, run size=0000b293 bytes, compression=zero_init


LINKER GENERATED HANDLER TABLE

__TI_handler_table @ 2002ba8c records: 3, size/record: 4, table size: 12
	index: 0, handler: __TI_decompress_rle24
	index: 1, handler: __TI_decompress_none
	index: 2, handler: __TI_zero_init


GLOBAL SYMBOLS: SORTED ALPHABETICALLY BY Name 

address   name                                                               
-------   ----                                                               
2001acdb  ADCChannelEnable                                                   
2001d673  ADCEnable                                                          
2001cd25  ADCFIFOLvlGet                                                      
2001d17d  ADCFIFORead                                                        
2001c7c9  ADCTimerConfig                                                     
2001d529  ADCTimerEnable                                                     
2001a0d1  C$$EXIT                                                            
20017df7  C$$IO$$                                                            
20018e81  CC3200_LAUNCHXL_initDMA                                            
2001de03  CC3200_LAUNCHXL_initGPIO                                           
2001d8d5  CC3200_LAUNCHXL_initGeneral                                        
2001de0b  CC3200_LAUNCHXL_initUART                                           
2001d8e5  CC3200_LAUNCHXL_initWiFi                                           
2001b1e5  CC3X00_NWP_disable                                                 
2001bd71  CC3X00_NWP_enable                                                  
20019121  CC3X00_NWP_enablePreamble                                          
2001d8f5  CC3X00_NWP_maskInterrupt                                           
2001db51  CC3X00_NWP_unMaskInterrupt                                         
2001d687  CPUcpsid                                                           
2001d69b  CPUcpsie                                                           
2001db5d  CPUwfi                                                             
2000b1d3  CdnClient_CloseServer                                              
2000b1f1  CdnClient_ConnectByUrl                                             
2000b1a1  CdnClient_Init                                                     
2000b06d  CdnClient_Run                                                      
2000b063  CdnClient_SetFileInfo                                              
200149a5  CertConv_pem2der                                                   
2001de13  ClockP_Params_init                                                 
20018951  ClockP_create                                                      
2001d53f  ClockP_delete                                                      
2000f96d  ClockP_getCpuFreq                                                  
2001db69  ClockP_getSystemTickPeriod                                         
2001dc99  ClockP_getSystemTicks                                              
2001d821  ClockP_start                                                       
2001d821  ClockP_startFromISR                                                
2001dd59  ClockP_stop                                                        
2001dd59  ClockP_stopFromISR                                                 
2001d011  CopyPingResultsToReport                                            
20029190  DeviceID                                                           
20019911  FlashDisable                                                       
2002a410  GPIOCC3200_config                                                  
2001b141  GPIODirModeSet                                                     
2001d6af  GPIOIntClear                                                       
2001d02b  GPIOIntEnable                                                      
2001c7eb  GPIOIntStatus                                                      
20016a55  GPIOIntTypeSet                                                     
2001d195  GPIOPinRead                                                        
2001c895  GPIOPinWrite                                                       
2001a489  GPIO_enableInt                                                     
2001809d  GPIO_hwiIntFxn                                                     
2001673d  GPIO_init                                                          
20019491  GPIO_setCallback                                                   
2000f219  GPIO_setConfig                                                     
20019171  GPIO_write                                                         
200277f0  HOST_NAME                                                          
2002a6ac  HOST_PORT                                                          
2000c4bd  HOSTclock                                                          
2000c485  HOSTclose                                                          
2000c447  HOSTgetenv                                                         
2000c3eb  HOSTlseek                                                          
2000c399  HOSTopen                                                           
2000c34d  HOSTread                                                           
2000c2ef  HOSTrename                                                         
2000c2b5  HOSTtime                                                           
2000c27d  HOSTunlink                                                         
2000c231  HOSTwrite                                                          
2001002d  HTTPCli_connect                                                    
2001d1ad  HTTPCli_construct                                                  
2001c291  HTTPCli_destruct                                                   
2001b6d5  HTTPCli_disconnect                                                 
2000f683  HTTPCli_getResponseField                                           
2001cd41  HTTPCli_getResponseStatus                                          
2001b177  HTTPCli_readRawResponseBody                                        
20015e21  HTTPCli_readResponseBody                                           
20017f69  HTTPCli_sendField                                                  
2001257d  HTTPCli_sendRequest                                                
2001ad13  HTTPCli_sendRequestBody                                            
2001c2b7  HTTPCli_setRequestFields                                           
2001c2dd  HTTPCli_setResponseFields                                          
2002a700  HTTPStd_CONNECT                                                    
2002a708  HTTPStd_CONTENT_TYPE_APPLET                                        
2002a70c  HTTPStd_CONTENT_TYPE_AU                                            
2002a710  HTTPStd_CONTENT_TYPE_CSS                                           
2002a714  HTTPStd_CONTENT_TYPE_DOC                                           
2002a718  HTTPStd_CONTENT_TYPE_GIF                                           
2002a71c  HTTPStd_CONTENT_TYPE_HTML                                          
2002a720  HTTPStd_CONTENT_TYPE_JPG                                           
2002a724  HTTPStd_CONTENT_TYPE_MPEG                                          
2002a728  HTTPStd_CONTENT_TYPE_PDF                                           
2002a734  HTTPStd_CONTENT_TYPE_PLAIN                                         
2002a72c  HTTPStd_CONTENT_TYPE_WAV                                           
2002a730  HTTPStd_CONTENT_TYPE_ZIP                                           
2002a6fc  HTTPStd_DELETE                                                     
2002a738  HTTPStd_FIELD_NAME_ACCEPT                                          
2002a73c  HTTPStd_FIELD_NAME_ACCEPT_CHARSET                                  
2002a740  HTTPStd_FIELD_NAME_ACCEPT_ENCODING                                 
2002a744  HTTPStd_FIELD_NAME_ACCEPT_LANGUAGE                                 
2002a748  HTTPStd_FIELD_NAME_ACCEPT_RANGES                                   
2002a74c  HTTPStd_FIELD_NAME_AGE                                             
2002a750  HTTPStd_FIELD_NAME_ALLOW                                           
2002a754  HTTPStd_FIELD_NAME_AUTHORIZATION                                   
2002a758  HTTPStd_FIELD_NAME_CACHE_CONTROL                                   
2002a75c  HTTPStd_FIELD_NAME_CONNECTION                                      
2002a760  HTTPStd_FIELD_NAME_CONTENT_ENCODING                                
2002a764  HTTPStd_FIELD_NAME_CONTENT_LANGUAGE                                
2002a768  HTTPStd_FIELD_NAME_CONTENT_LENGTH                                  
2002a76c  HTTPStd_FIELD_NAME_CONTENT_LOCATION                                
2002a770  HTTPStd_FIELD_NAME_CONTENT_MD5                                     
2002a774  HTTPStd_FIELD_NAME_CONTENT_RANGE                                   
2002a778  HTTPStd_FIELD_NAME_CONTENT_TYPE                                    
2002a77c  HTTPStd_FIELD_NAME_COOKIE                                          
2002a780  HTTPStd_FIELD_NAME_DATE                                            
2002a784  HTTPStd_FIELD_NAME_ETAG                                            
2002a788  HTTPStd_FIELD_NAME_EXPECT                                          
2002a78c  HTTPStd_FIELD_NAME_EXPIRES                                         
2002a790  HTTPStd_FIELD_NAME_FROM                                            
2002a794  HTTPStd_FIELD_NAME_HOST                                            
2002a798  HTTPStd_FIELD_NAME_IF_MATCH                                        
2002a79c  HTTPStd_FIELD_NAME_IF_MODIFIED_SINCE                               
2002a7a0  HTTPStd_FIELD_NAME_IF_NONE_MATCH                                   
2002a7a4  HTTPStd_FIELD_NAME_IF_RANGE                                        
2002a7a8  HTTPStd_FIELD_NAME_IF_UNMODIFIED_SINCE                             
2002a7ac  HTTPStd_FIELD_NAME_LAST_MODIFIED                                   
2002a7b0  HTTPStd_FIELD_NAME_LOCATION                                        
2002a7b4  HTTPStd_FIELD_NAME_MAX_FORWARDS                                    
2002a7b8  HTTPStd_FIELD_NAME_ORIGIN                                          
2002a7bc  HTTPStd_FIELD_NAME_PRAGMA                                          
2002a7c0  HTTPStd_FIELD_NAME_PROXY_AUTHENTICATE                              
2002a7c4  HTTPStd_FIELD_NAME_PROXY_AUTHORIZATION                             
2002a7c8  HTTPStd_FIELD_NAME_RANGE                                           
2002a7cc  HTTPStd_FIELD_NAME_REFERER                                         
2002a7d0  HTTPStd_FIELD_NAME_RETRY_AFTER                                     
2002a7d4  HTTPStd_FIELD_NAME_SERVER                                          
2002a800  HTTPStd_FIELD_NAME_SOAPACTION                                      
2002a7d8  HTTPStd_FIELD_NAME_TE                                              
2002a7dc  HTTPStd_FIELD_NAME_TRAILER                                         
2002a7e0  HTTPStd_FIELD_NAME_TRANSFER_ENCODING                               
2002a7e4  HTTPStd_FIELD_NAME_UPGRADE                                         
2002a7e8  HTTPStd_FIELD_NAME_USER_AGENT                                      
2002a7ec  HTTPStd_FIELD_NAME_VARY                                            
2002a7f0  HTTPStd_FIELD_NAME_VIA                                             
2002a7f8  HTTPStd_FIELD_NAME_WARNING                                         
2002a7f4  HTTPStd_FIELD_NAME_WWW_AUTHENTICATE                                
2002a7fc  HTTPStd_FIELD_NAME_X_FORWARDED_FOR                                 
2002a6e8  HTTPStd_GET                                                        
2002a6f0  HTTPStd_HEAD                                                       
2002a6f4  HTTPStd_OPTIONS                                                    
2002a704  HTTPStd_PATCH                                                      
2002a6ec  HTTPStd_POST                                                       
2002a6f8  HTTPStd_PUT                                                        
2002a6e4  HTTPStd_VER                                                        
2002a9bc  HostAddress                                                        
2001dae9  HwiP_Params_init                                                   
2000fad5  HwiP_clearInterrupt                                                
2001835d  HwiP_create                                                        
2001d555  HwiP_delete                                                        
2001041d  HwiP_disable                                                       
2001dea9  HwiP_restore                                                       
2001dd63  List_empty                                                         
2001314d  List_head                                                          
2001321d  List_next                                                          
2001c303  List_put                                                           
2001d045  List_remove                                                        
2000b785  LogClient_Close                                                    
2000b79d  LogClient_ConnectAndPrint                                          
2000b74f  LogClient_ConnectServer                                            
2000b737  LogClient_Init                                                     
2000b5f5  LogClient_Print                                                    
20014369  MQTTcallbackHandler                                                
2002b0d0  NTP_HOSTNAME                                                       
2001d1c5  NetMACAddressGet                                                   
2000ca45  NetWiFi_init                                                       
2001db75  NetWiFi_isConnected                                                
2000ec05  OTAServerInfoSet                                                   
20029ca0  OpcodeTranslateTable                                               
2002922c  OptionLen                                                          
20029290  OptionVal                                                          
2000a01b  OtaClient_CloseServer                                              
20009fe5  OtaClient_ConnectServer                                            
20009fb3  OtaClient_GetNextUpdate                                            
20009f81  OtaClient_Init                                                     
20009eab  OtaClient_ResourceMetadata                                         
20009cdf  OtaClient_ResourceNameConvert                                      
20009c31  OtaClient_UpdateCheck                                              
20010a71  PRCMCC3200MCUInit                                                  
2001d56b  PRCMHIBRegRead                                                     
2001d581  PRCMHIBRegWrite                                                    
2001d1dd  PRCMHibernateEnter                                                 
20016169  PRCMHibernateIntervalSet                                           
20017c91  PRCMHibernateWakeUpGPIOSelect                                      
20019959  PRCMHibernateWakeupSourceEnable                                    
2001ad4d  PRCMIntEnable                                                      
20019f39  PRCMLPDSEnter                                                      
2001bd9d  PRCMLPDSIntervalSet                                                
2001c8b5  PRCMLPDSRestoreInfoSet                                             
2001c40d  PRCMLPDSWakeUpGPIOSelect                                           
2001c101  PRCMLPDSWakeupSourceEnable                                         
2001c129  PRCMPeripheralClkDisable                                           
2001a985  PRCMPeripheralClkEnable                                            
20015869  PRCMPeripheralClockGet                                             
20018ab9  PRCMPeripheralReset                                                
2001b219  PRCMPeripheralStatusGet                                            
2001b24d  PRCMSRAMRetentionEnable                                            
2001de1b  PRCMSleepEnter                                                     
2001a9c1  PRCMSlowClkCtrFastGet                                              
2001bdc9  PRCMSysResetCauseGet                                               
20028fe4  PUT_DATA                                                           
2002a820  PWR1                                                               
2002a824  PWR2                                                               
2002a828  PWR3                                                               
2002a82c  PWR4                                                               
20008f19  ParseJSONData                                                      
2002a850  Phantom_buff                                                       
2002a840  Phantom_var1                                                       
2002a844  Phantom_var2                                                       
2002a848  Phantom_var3                                                       
2002a84c  Phantom_var4                                                       
200199a1  PinConfigGet                                                       
200161f1  PinConfigSet                                                       
2001a9fd  PinDirModeSet                                                      
2001a4c9  PinModeSet                                                         
2000fc31  PinMuxConfig                                                       
2001d6c3  PinTypeADC                                                         
2001b7d3  PinTypeGPIO                                                        
2001d05f  PinTypeUART                                                        
20029074  Power1                                                             
2002909c  Power2                                                             
200290c4  Power3                                                             
200290ec  Power4                                                             
20029fd8  PowerCC3200_config                                                 
200288b4  PowerCC3200_contextSave                                            
20019f7d  PowerCC3200_enterLPDS                                              
2001ad85  PowerCC3200_initPolicy                                             
2002ae30  PowerCC3200_module                                                 
2001a2fd  PowerCC3200_resumeLPDS                                             
2000ed8d  PowerCC3200_sleepPolicy                                            
2001db81  Power_getConstraintMask                                            
2001db8d  Power_getDependencyCount                                           
2001c8d5  Power_idleFunc                                                     
20018b11  Power_init                                                         
2001c151  Power_registerNotify                                               
2001b805  Power_releaseConstraint                                            
2001b281  Power_releaseDependency                                            
2001b835  Power_setConstraint                                                
2001a509  Power_setDependency                                                
20017461  Power_sleep                                                        
2001c8f5  Power_unregisterNotify                                             
2001c431  RebootMCU                                                          
2001d833  RingBuf_construct                                                  
2001a549  RingBuf_get                                                        
2001db99  RingBuf_peek                                                       
20019dd9  RingBuf_put                                                        
20029291  RxIrqCnt                                                           
2002a0e4  RxMsgClassLUT                                                      
UNDEFED   SHT$$INIT_ARRAY$$Base                                              
UNDEFED   SHT$$INIT_ARRAY$$Limit                                             
2001d905  SL_FD_SET                                                          
2001de4b  SL_FD_ZERO                                                         
2001bdf5  SNTP_forceTimeSync                                                 
20018ed5  SNTP_setServers                                                    
2000abc5  SNTP_start                                                         
20028d40  SPICC3200DMAObjects                                                
200189ab  SPICC3200DMA_close                                                 
2001de79  SPICC3200DMA_control                                               
20029ab4  SPICC3200DMA_fxnTable                                              
2001cd5d  SPICC3200DMA_init                                                  
20011065  SPICC3200DMA_open                                                  
2000668b  SPICC3200DMA_serviceISR                                            
2000fd85  SPICC3200DMA_transfer                                              
20008f17  SPICC3200DMA_transferCancel                                        
2001d1f5  SPICSDisable                                                       
2001d20d  SPICSEnable                                                        
20014d85  SPIConfigSetExpClk                                                 
2001c915  SPIDataGet                                                         
2001c005  SPIDataGetNonBlocking                                              
2001cbf9  SPIDataPut                                                         
2001d225  SPIDisable                                                         
2001d079  SPIDmaDisable                                                      
2001d093  SPIDmaEnable                                                       
2001d23d  SPIEnable                                                          
2001d0ad  SPIFIFODisable                                                     
2001d0c7  SPIFIFOEnable                                                      
2001b2b5  SPIFIFOLevelSet                                                    
200199e9  SPIIntClear                                                        
200194dd  SPIIntDisable                                                      
20019529  SPIIntEnable                                                       
20016c59  SPIIntStatus                                                       
2001c80d  SPIReset                                                           
2001c82f  SPIWordCountSet                                                    
2001d6d9  SPI_Params_init                                                    
2001dd6d  SPI_close                                                          
2002a078  SPI_config                                                         
2002a200  SPI_defaultParams                                                  
2001adbd  SPI_init                                                           
2001b865  SPI_open                                                           
2001dd77  SPI_transfer                                                       
2001de23  SemaphoreP_Params_init                                             
20018b69  SemaphoreP_create                                                  
2001d597  SemaphoreP_delete                                                  
2001d845  SemaphoreP_pend                                                    
2001dd81  SemaphoreP_post                                                    
2001dd81  SemaphoreP_postFromClock                                           
2001dd81  SemaphoreP_postFromISR                                             
2002a868  SetCommitInt                                                       
2001dd8b  SimpleLinkGeneralEventHandler                                      
2001dba5  SimpleLinkHttpServerCallback                                       
2001c455  SimpleLinkNetAppEventHandler                                       
2001dd95  SimpleLinkSockEventHandler                                         
20029250  SimpleLinkSpawnTaskHndl                                            
2001b895  SimpleLinkWlanEventHandler                                         
2001d6ed  Ssock_construct                                                    
2001d255  Ssock_create                                                       
2001cd79  Ssock_delete                                                       
2001cd95  Ssock_destruct                                                     
20013e55  Ssock_getSocket                                                    
2001b707  Ssock_recv                                                         
2001c179  Ssock_recvall                                                      
200141fd  Ssock_send                                                         
2001385f  Ssock_startTLS                                                     
2002a4bc  StartResponseLUT                                                   
20012821  TLS_create                                                         
2001c479  TLS_delete                                                         
2001d26d  UARTBusy                                                           
20016279  UARTCC3200_close                                                   
20015277  UARTCC3200_control                                                 
2002a000  UARTCC3200_fxnTable                                                
2001dbb1  UARTCC3200_init                                                    
2000d13d  UARTCC3200_open                                                    
2001a589  UARTCC3200_read                                                    
2001b1ad  UARTCC3200_readCancel                                              
2001530f  UARTCC3200_readPolling                                             
20014ce1  UARTCC3200_write                                                   
20018f29  UARTCC3200_writeCancel                                             
2001a33f  UARTCC3200_writePolling                                            
2001d5ad  UARTCharGet                                                        
2001cdb1  UARTCharGetNonBlocking                                             
2001cc17  UARTCharPut                                                        
2001c49d  UARTCharPutNonBlocking                                             
20017219  UARTConfigSetExpClk                                                
2001b8c5  UARTDisable                                                        
2001c4c1  UARTEnable                                                         
2001d285  UARTFIFOLevelSet                                                   
2001cdcd  UARTFlowControlSet                                                 
2001d857  UARTIntClear                                                       
2001d29d  UARTIntDisable                                                     
2001d2b5  UARTIntEnable                                                      
2001cc35  UARTIntStatus                                                      
2001d915  UARTRxErrorClear                                                   
2001d869  UARTRxErrorGet                                                     
2001d2cd  UARTUtils_deviceclose                                              
2001d87b  UARTUtils_devicelseek                                              
2001bcb9  UARTUtils_deviceopen                                               
2001b2e9  UARTUtils_deviceread                                               
2001d925  UARTUtils_devicerename                                             
2001daf7  UARTUtils_deviceunlink                                             
2001b31d  UARTUtils_devicewrite                                              
2001c4e5  UARTUtils_systemAbort                                              
20015ead  UARTUtils_systemInit                                               
2001c935  UARTUtils_systemPutch                                              
2001d701  UARTUtils_systemReady                                              
2001d2e5  UART_Params_init                                                   
2001dd9f  UART_close                                                         
2002a09c  UART_config                                                        
2002a0c0  UART_defaultParams                                                 
2001adf5  UART_init                                                          
2001b8f5  UART_open                                                          
2001dda9  UART_read                                                          
2001ddb3  UART_write                                                         
2001ddbd  UART_writePolling                                                  
2001de7f  UtilsDelay                                                         
2001d2fd  VDeleteSimpleLinkSpawnTask                                         
200170b1  VStartSimpleLinkSpawnTask                                          
2001cc53  WiFiCC3200_close                                                   
2001de85  WiFiCC3200_control                                                 
2002a468  WiFiCC3200_fxnTable                                                
2001d315  WiFiCC3200_init                                                    
20016b59  WiFiCC3200_open                                                    
2001d935  WiFi_Params_init                                                   
2001ddc7  WiFi_close                                                         
2002a380  WiFi_config                                                        
2002a498  WiFi_defaultParams                                                 
2001ae2d  WiFi_init                                                          
2001aa39  WiFi_open                                                          
2001c083  _Dclass                                                            
2002ad30  _Denorm                                                            
20013b61  _Dnorm                                                             
200115ed  _Dscale                                                            
20017fd1  _Dunscale                                                          
2002ad40  _Eps                                                               
2002b148  _Errno                                                             
2002b12c  _Fenv                                                              
2001b9e5  _Feraise                                                           
2002ad50  _Hugeval                                                           
2002ad60  _Inf                                                               
2002ad70  _Nan                                                               
2000b001  _OpenStorageFile                                                   
2000a05d  _OtaCleanToIdle                                                    
2000afb3  _ReadFileHeaders                                                   
2000a14b  _ReadStatFile                                                      
2000afa7  _RecvFileChunk                                                     
2002ad90  _Rteps                                                             
20029e48  _SlAcceptCmdCtrl                                                   
20029d8c  _SlActionLookupTable                                               
2001a049  _SlAsyncEventGenericHandler                                        
2002a430  _SlDeviceGetCmdCtrl                                                
2002a434  _SlDeviceSetCmdCtrl                                                
2001b351  _SlDrvBasicCmd                                                     
20017291  _SlDrvClassifyRxMsg                                                
200174d1  _SlDrvCmdOp                                                        
20018bc1  _SlDrvCmdSend                                                      
20012661  _SlDrvDataReadOp                                                   
2001484d  _SlDrvDataWriteOp                                                  
20019575  _SlDrvDeviceEventHandler                                           
20015be1  _SlDrvDriverCBDeinit                                               
200120ed  _SlDrvDriverCBInit                                                 
2001de2b  _SlDrvMemZero                                                      
2000a829  _SlDrvMsgRead                                                      
200153a9  _SlDrvMsgReadCmdCtx                                                
200177e1  _SlDrvMsgReadSpawnCtx                                              
200112a9  _SlDrvMsgWrite                                                     
2001441d  _SlDrvNetAppEventHandler                                           
2001d88d  _SlDrvObjLockWaitForever                                           
2001db05  _SlDrvObjUnLock                                                    
2001b385  _SlDrvProtectAsyncRespSetting                                      
2001cde9  _SlDrvProtectionObjLockWaitForever                                 
2001d32d  _SlDrvProtectionObjUnLock                                          
20013481  _SlDrvReleasePoolObj                                               
2001de8b  _SlDrvResetCmdExt                                                  
2001017d  _SlDrvRxHdrRead                                                    
2001a5c9  _SlDrvRxIrqHandler                                                 
2001db13  _SlDrvSyncObjSignal                                                
2001d89f  _SlDrvSyncObjWaitForever                                           
20012e0d  _SlDrvWaitForPoolObj                                               
2002a42c  _SlEventMaskGetCmdCtrl                                             
2002a428  _SlEventMaskSetCmdCtrl                                             
200158fd  _SlFindAndSetActiveObj                                             
20029dc8  _SlFsCloseCmdCtrl                                                  
20029dd8  _SlFsDeleteCmdCtrl                                                 
20029dd4  _SlFsGetInfoCmdCtrl                                                
20029dc4  _SlFsOpenCmdCtrl                                                   
20029dcc  _SlFsReadCmdCtrl                                                   
20029dd0  _SlFsWriteCmdCtrl                                                  
2002a03c  _SlGetHostByNameCtrl                                               
2002a038  _SlGetHostByServiceCtrl                                            
2002a030  _SlGetServiceListeCtrl                                             
20029e54  _SlGetSockOptCmdCtrl                                               
20029e44  _SlListenCmdCtrl                                                   
2002a048  _SlNetAppGetCmdCtrl                                                
2002a044  _SlNetAppSendTokenValueCmdCtrl                                     
2002a040  _SlNetAppSetCmdCtrl                                                
2002a028  _SlNetAppStartCtrl                                                 
2002a02c  _SlNetAppStopCtrl                                                  
2002a4d8  _SlNetCfgGetCmdCtrl                                                
2002a4d4  _SlNetCfgSetCmdCtrl                                                
2002a438  _SlPayloadByProtocolLUT                                            
20029ce0  _SlPolicyGetCmdCtrl                                                
20029cdc  _SlPolicySetCmdCtrl                                                
20029ce8  _SlProfileDelCmdCtrl                                               
20029ce4  _SlProfileGetCmdCtrl                                               
20029e4c  _SlRecvCmdCtrl                                                     
20029e3c  _SlRecvfomCmdCtrl                                                  
2002a034  _SlRegisterServiceCtrl                                             
20019a31  _SlRemoveFromList                                                  
20029cf0  _SlRxFilterAddtCmdCtrl                                             
20029cf8  _SlRxFilterGetCmdCtrl                                              
20029cf4  _SlRxFilterSetCmdCtrl                                              
20029e58  _SlSelectCmdCtrl                                                   
20029e40  _SlSendCmdCtrl                                                     
20029e50  _SlSetSockOptCmdCtrl                                               
20029cfc  _SlSmartConfigStartCmdCtrl                                         
20029e38  _SlSockCloseCmdCtrl                                                
20029e34  _SlSockSocketCmdCtrl                                               
2002a424  _SlStopCmdCtrl                                                     
20029d08  _SlWlanCfgGetCmdCtrl                                               
20029d04  _SlWlanCfgSetCmdCtrl                                               
20029cec  _SlWlanGetNetworkListCtrl                                          
20029d00  _SlWlanSetModeCmdCtrl                                              
2002ad80  _Snan                                                              
2002b130  _Tls_setup__Fenv                                                   
2000a0fd  _WriteStatFile                                                     
2002ada0  _Xbig                                                              
2002ada8  _Zero                                                              
00000000  __ASM__                                                            
200289e0  __CIOBUF_                                                          
000000e4  __ISA__                                                            
000000f7  __PLAT__                                                           
2002b558  __STACK_END                                                        
00000400  __STACK_SIZE                                                       
0000011e  __TARG__                                                           
2002baa0  __TI_CINIT_Base                                                    
2002bab0  __TI_CINIT_Limit                                                   
2002ba8c  __TI_Handler_Table_Base                                            
2002ba98  __TI_Handler_Table_Limit                                           
20014e25  __TI_auto_init                                                     
2000ddc1  __TI_cleanup                                                       
2002b124  __TI_cleanup_ptr                                                   
20015571  __TI_closefile                                                     
2001db21  __TI_decompress_none                                               
2001de97  __TI_decompress_rle24                                              
20013611  __TI_doflush                                                       
2002b128  __TI_dtors_ptr                                                     
2002b0f4  __TI_ft_end                                                        
20006385  __TI_printfi                                                       
2001495b  __TI_rd_ok                                                         
20017dfb  __TI_readmsg                                                       
2002b558  __TI_static_base__                                                 
20028c08  __TI_tmpnams                                                       
20019211  __TI_tvaltostr                                                     
20017dc9  __TI_writemsg                                                      
200148f9  __TI_wrt_ok                                                        
2001dbbd  __TI_zero_init                                                     
00000143  __TRDR__                                                           
20014585  __abort_execution                                                  
20016631  __aeabi_cdcmpeq                                                    
20016631  __aeabi_cdcmple                                                    
200166b7  __aeabi_cdrcmple                                                   
200183bf  __aeabi_cfcmpeq                                                    
200183bf  __aeabi_cfcmple                                                    
2001841f  __aeabi_cfrcmple                                                   
20019b51  __aeabi_d2f                                                        
20019b09  __aeabi_d2iz                                                       
2000e23b  __aeabi_dadd                                                       
20010939  __aeabi_ddiv                                                       
20011d11  __aeabi_dmul                                                       
2000e231  __aeabi_dsub                                                       
2001af0d  __aeabi_f2d                                                        
2001af45  __aeabi_f2iz                                                       
20015b4d  __aeabi_fdiv                                                       
20016fbb  __aeabi_fmul                                                       
2001bd15  __aeabi_i2d                                                        
2001af7d  __aeabi_i2f                                                        
2000abc3  __aeabi_idiv0                                                      
2001d375  __aeabi_lmul                                                       
20017035  __aeabi_memclr                                                     
20017035  __aeabi_memclr4                                                    
20017035  __aeabi_memclr8                                                    
200150a1  __aeabi_memcpy                                                     
200150a1  __aeabi_memcpy4                                                    
200150a1  __aeabi_memcpy8                                                    
20017037  __aeabi_memset                                                     
20017037  __aeabi_memset4                                                    
20017037  __aeabi_memset8                                                    
2002b100  __aeabi_stderr                                                     
2002b0f8  __aeabi_stdin                                                      
2002b0fc  __aeabi_stdout                                                     
2001c551  __aeabi_ui2f                                                       
2001a849  __aeabi_uidiv                                                      
2001a849  __aeabi_uidivmod                                                   
2000d745  __aeabi_uldivmod                                                   
ffffffff  __binit__                                                          
ffffffff  __c_args__                                                         
2002b158  __stack                                                            
2000c8b5  __vla_alloc                                                        
2000c7ad  __vla_dealloc                                                      
2000c835  __vla_dealloc_eh                                                   
2001de91  __xdc__init                                                        
2002a9b8  __xdc__init__addr                                                  
2001be7b  _abort_msg                                                         
2001d35d  _args_main                                                         
2001be91  _assert                                                            
20015f39  _aws_iot_mqtt_internal_disconnect                                  
2001a08d  _c_int00                                                           
20029660  _ctypes_                                                           
2002aabc  _ftable                                                            
2002b11c  _lock                                                              
2001be79  _nassert                                                           
2001d74b  _nop                                                               
2000af4d  _readSignature                                                     
2001d743  _register_lock                                                     
2001d73d  _register_unlock                                                   
2001c02f  _sl_BuildAddress                                                   
20017cf9  _sl_GetCreateFsMode                                                
2001d945  _sl_GetStartResponseConvert                                        
200195c1  _sl_HandleAsync_Accept                                             
200191c1  _sl_HandleAsync_Connect                                            
20018101  _sl_HandleAsync_DnsGetHostByName                                   
20018481  _sl_HandleAsync_DnsGetHostByService                                
200184e1  _sl_HandleAsync_InitComplete                                       
20018541  _sl_HandleAsync_PingResponse                                       
2001a609  _sl_HandleAsync_Select                                             
2001aa75  _sl_HandleAsync_Stop                                               
20018c71  _sl_NetAppSendTokenValue                                           
2001d5c3  _sl_Strlen                                                         
2001ce05  _sl_TruncatePayloadByProtocol                                      
2002b104  _tz                                                                
2002b120  _unlock                                                            
2001a0d5  abort                                                              
2000bead  add_device                                                         
20014b99  asctime                                                            
20019659  atoi                                                               
200196a5  atol                                                               
20018cc9  aws_iot_is_autoreconnect_enabled                                   
20018a05  aws_iot_mqtt_attempt_reconnect                                     
2001c851  aws_iot_mqtt_autoreconnect_set_status                              
200167c1  aws_iot_mqtt_connect                                               
20017d61  aws_iot_mqtt_disconnect                                            
2001d5d9  aws_iot_mqtt_get_client_state                                      
2001c329  aws_iot_mqtt_get_next_packet_id                                    
200102cd  aws_iot_mqtt_init                                                  
20015441  aws_iot_mqtt_internal_cycle_read                                   
20018165  aws_iot_mqtt_internal_decode_remaining_length_from_buffer          
20013921  aws_iot_mqtt_internal_deserialize_ack                              
20011a11  aws_iot_mqtt_internal_deserialize_publish                          
2001a381  aws_iot_mqtt_internal_get_final_packet_length_from_remaining_length
2000db29  aws_iot_mqtt_internal_init_header                                  
2001c955  aws_iot_mqtt_internal_read_char                                    
2001a3c3  aws_iot_mqtt_internal_read_uint16_t                                
20016055  aws_iot_mqtt_internal_send_packet                                  
20014af5  aws_iot_mqtt_internal_serialize_ack                                
20016845  aws_iot_mqtt_internal_serialize_zero                               
20016301  aws_iot_mqtt_internal_wait_for_read                                
2001c975  aws_iot_mqtt_internal_write_char                                   
20019e1f  aws_iot_mqtt_internal_write_len_to_buffer                          
20019e65  aws_iot_mqtt_internal_write_uint_16                                
2001ae65  aws_iot_mqtt_internal_write_utf8_string                            
20013fd5  aws_iot_mqtt_is_client_connected                                   
2001463d  aws_iot_mqtt_publish                                               
20017129  aws_iot_mqtt_resubscribe                                           
2001a405  aws_iot_mqtt_set_client_state                                      
200139e1  aws_iot_mqtt_set_connect_params                                    
200142b3  aws_iot_mqtt_subscribe                                             
2001479d  aws_iot_mqtt_yield                                                 
20028ca8  belkin_uri                                                         
2002a6c4  belkinipstatus                                                     
200291a4  belkinstatus                                                       
ffffffff  binit                                                              
20029254  bulbnumber                                                         
2002a80c  bytesReceived                                                      
2002a880  ch                                                                 
2000be5d  close                                                              
200196f1  copy_in                                                            
20015005  countdown_ms                                                       
20015991  countdown_sec                                                      
2001dc35  ctime                                                              
2002a68c  deviceID                                                           
20011b11  deviceidread                                                       
2002a6a8  devicestate                                                        
2000668d  dexterpicontroller                                                 
20028e2c  dexterpistring                                                     
2000e3e9  disconnectCallbackHandler                                          
2000760d  dynamic_power_1                                                    
2002a6b8  enddevicestatus                                                    
2001a0dd  exit                                                               
200155d7  fclose                                                             
2001b455  feraiseexcept                                                      
2001bce7  ff_memalloc                                                        
2001d345  ff_memfree                                                         
2001365d  fflush                                                             
2000e739  flashFiledevice                                                    
2000de17  fopen                                                              
200178c1  fprintf                                                            
20015609  fputc                                                              
20010ba5  fputs                                                              
2001d345  free                                                               
2000dded  freopen                                                            
2001c873  frexp                                                              
200181c9  fseek                                                              
2002b09c  gFirstCmdMode                                                      
20028db8  g_CdnClient                                                        
2002b144  g_ConsecutiveNetAccessNetErrors                                    
200291b8  g_FlcSflashCb                                                      
2002b08c  g_H2NCnysPattern                                                   
2002b084  g_H2NSyncPattern                                                   
20029238  g_LogClient                                                        
200277a4  g_OtaApp                                                           
20028f58  g_OtaApp_statistics                                                
20027358  g_OtaCheckUpdateResponse                                           
20029114  g_OtaClient                                                        
20027c00  g_OtaFileMetadata                                                  
20026800  g_buff                                                             
2002b094  g_pCB                                                              
2002a818  g_ucSimplelinkstarted                                              
2002a810  g_uiPortNum                                                        
20029268  g_ulDestinationIP                                                  
2002a808  g_ulGatewayIP                                                      
2002a81c  g_ulIpAddr                                                         
2002a814  g_ulPacketCount                                                    
2002a804  g_ulStatus                                                         
2002b0e4  g_ulStatus1                                                        
2001de33  getTime                                                            
2002b0b0  gpioCallbackFunctions                                              
2002b0a4  gpioPinConfigs                                                     
2001c9d5  has_timer_expired                                                  
200082bd  http_build_request                                                 
200081d7  http_connect_server                                                
20008177  http_extract_domain_by_url                                         
20008163  http_recv_buf                                                      
2000815f  http_send_buf                                                      
20008097  http_skip_headers                                                  
2002a830  i1                                                                 
2002926c  id_len                                                             
2002a688  ilen                                                               
20029e68  inPinTypes                                                         
2001d5ef  init_timer                                                         
20029dfc  iotClientConnectParamsDefault                                      
20029f30  iotClientInitParamsDefault                                         
20010f39  iot_tls_connect                                                    
2001aca1  iot_tls_destroy                                                    
2001a689  iot_tls_disconnect                                                 
200168c9  iot_tls_init                                                       
2001dbed  iot_tls_is_connected                                               
20014a4f  iot_tls_read                                                       
20018a5f  iot_tls_write                                                      
2002a834  j1                                                                 
2001cc8f  jsmn_init                                                          
2000bf59  jsmn_parse                                                         
20008045  json_parse_dropbox_media_url                                       
20007f03  json_parse_dropbox_metadata                                        
20007ec7  json_parse_rsrc_metadata_url                                       
20007dad  json_parse_update_check_resp                                       
2002a838  k1                                                                 
2002a83c  l1                                                                 
20019eab  ldexp                                                              
2001ae9d  left_ms                                                            
2000a147  local_filter                                                       
2001973d  localtime                                                          
2000be39  lseek                                                              
20018e29  ltoa                                                               
200171a1  main                                                               
2002b150  main_func_sp                                                       
2001bce7  malloc                                                             
2002a858  max1                                                               
2002a85c  max2                                                               
2002a860  max3                                                               
2002a864  max4                                                               
2001d345  mem_Free                                                           
20013f15  mem_Malloc                                                         
2001ce75  memccpy                                                            
2001c9f5  memchr                                                             
200150a1  memcpy                                                             
2001703d  memset                                                             
2000c505  mktime                                                             
20029292  myawstask_status                                                   
20029270  noOfToken                                                          
200291f4  ntpServers                                                         
2000bd8b  open                                                               
2001aed5  osi_LockObjCreate                                                  
2001dddb  osi_LockObjDelete                                                  
2001a709  osi_LockObjLock                                                    
2001dbf9  osi_LockObjUnlock                                                  
2001c509  osi_Spawn                                                          
2001d729  osi_SyncObjClear                                                   
2001a749  osi_SyncObjCreate                                                  
2001dde5  osi_SyncObjDelete                                                  
2001dc05  osi_SyncObjSignal                                                  
2001dc11  osi_SyncObjSignalFromISR                                           
2001a789  osi_SyncObjWait                                                    
2001da59  osi_TaskDisable                                                    
2001d9d9  osi_start                                                          
20029e76  outPinStrengths                                                    
20029e6e  outPinTypes                                                        
2002b098  pPingCallBackFunc                                                  
200107f9  philiphsidread                                                     
2002a6a0  philips_config                                                     
20029048  philips_id                                                         
20028e90  philips_request_uri                                                
20029204  philips_uri                                                        
2002a6cc  philipsbulbget                                                     
20029274  philipsbulbid                                                      
20028724  philipsbulbstatus                                                  
2002a6a4  philipsconfigstatus                                                
2002a6c8  philipsget                                                         
2002a6b0  philipsgetbulbsstatus                                              
2002a870  philipsgetstatus                                                   
2002a6c0  philipsipstatus                                                    
2002a6d0  philipssinglebulbget                                               
2002a874  port                                                               
2000ea75  power                                                              
20017549  printf                                                             
2002a878  publishCount                                                       
2002a69c  pubtopName                                                         
20015609  putc                                                               
2001568d  putchar                                                            
20010cb1  puts                                                               
2002a87c  pw                                                                 
2002a86c  r                                                                  
2001bd43  raise                                                              
2000bd67  read                                                               
2001a945  realloc                                                            
2001b955  registerInterruptHandler                                           
2000bcdd  remove                                                             
2000bd3f  remove_device                                                      
2000bd01  rename                                                             
20004311  runAWSClient                                                       
2000ccc1  setStationMode                                                     
20018d21  setTime                                                            
200129d9  setvbuf                                                            
2001a7c9  signal                                                             
20029280  simpleLink_mailbox                                                 
20029284  size                                                               
2000d345  slTask                                                             
20018d79  sl_Bind                                                            
2001c575  sl_Close                                                           
200146ed  sl_Connect                                                         
20019261  sl_DevSet                                                          
200175b1  sl_FsClose                                                         
2001a115  sl_FsDel                                                           
20018fd1  sl_FsOpen                                                          
20016389  sl_FsRead                                                          
20016411  sl_FsWrite                                                         
2001afb5  sl_Htonl                                                           
2001b4f1  sl_Htons                                                           
20014145  sl_NetAppDnsGetHostByName                                          
20016dcd  sl_NetCfgGet                                                       
200192b1  sl_NetCfgSet                                                       
20019b99  sl_Recv                                                            
200136d9  sl_RecvFrom                                                        
20007d85  sl_Recv_eagain                                                     
20012c65  sl_Select                                                          
20014c3d  sl_Send                                                            
20013cdd  sl_SendTo                                                          
20019025  sl_SetSockOpt                                                      
2001ba15  sl_Socket                                                          
20015d01  sl_Start                                                           
200156a1  sl_Stop                                                            
2000e591  sl_WlanConnect                                                     
2001de43  sl_WlanDisconnect                                                  
2001a159  sl_WlanPolicySet                                                   
2001c599  sl_WlanProfileDel                                                  
2001c5bd  sl_WlanSetMode                                                     
20017621  sl_WlanSmartConfigStart                                            
2000a3ef  sl_extLib_OtaGet                                                   
2000a395  sl_extLib_OtaInit                                                  
2000a18d  sl_extLib_OtaRun                                                   
2000a07b  sl_extLib_OtaSet                                                   
2000f04d  sl_extlib_FlcAbortFile                                             
2000f045  sl_extlib_FlcCloseFile                                             
2000f00d  sl_extlib_FlcCommit                                                
2000eff5  sl_extlib_FlcIsPendingCommit                                       
2000efb3  sl_extlib_FlcOpenFile                                              
2000efa1  sl_extlib_FlcReadFile                                              
2000ef73  sl_extlib_FlcTest                                                  
2000ef15  sl_extlib_FlcWriteFile                                             
20015d91  smartConfigFxn                                                     
2002b0f0  smarttime                                                          
20029a4c  spiCC3200DMAHWAttrs                                                
20029260  spiCC3200DMAscratchBuf                                             
2001d3a5  spi_Close                                                          
2001aaed  spi_Open                                                           
20017e31  spi_Read                                                           
20017e99  spi_Write                                                          
200185a1  sprintf                                                            
20019301  sstartNTP                                                          
2000debd  startNTP                                                           
2002a884  status                                                             
2001b985  strcasecmp                                                         
2001ccad  strcat                                                             
2001d605  strchr                                                             
2001d38d  strcmp                                                             
2001d751  strcpy                                                             
2001c52d  strcspn                                                            
2001d765  strlen                                                             
2001c1f1  strncat                                                            
2001c3c1  strncmp                                                            
2001b9b5  strncpy                                                            
2001c059  strspn                                                             
2001b489  strstr                                                             
2001a809  strtok                                                             
200114d9  strtoul                                                            
2002b060  ti_sysbios_BIOS_Module__state__V                                   
2001d435  ti_sysbios_BIOS_RtsGateProxy_Handle__label__S                      
2001c6c5  ti_sysbios_BIOS_RtsGateProxy_Object__delete__S                     
2001513d  ti_sysbios_BIOS_RtsGateProxy_enter__E                              
20015fc5  ti_sysbios_BIOS_RtsGateProxy_leave__E                              
2001def1  ti_sysbios_BIOS_RtsGateProxy_query__E                              
2001ba45  ti_sysbios_BIOS_atExitFunc__I                                      
2001cccb  ti_sysbios_BIOS_errorRaiseHook__I                                  
2001d631  ti_sysbios_BIOS_exitFunc__I                                        
2001d9b9  ti_sysbios_BIOS_getCpuFreq__E                                      
2000dcf7  ti_sysbios_BIOS_nullFunc__I                                        
2001c5e1  ti_sysbios_BIOS_registerRTSLock__I                                 
2001c605  ti_sysbios_BIOS_removeRTSLock__I                                   
2001ca55  ti_sysbios_BIOS_rtsLock__I                                         
2001d3bd  ti_sysbios_BIOS_rtsUnlock__I                                       
2001d9c9  ti_sysbios_BIOS_setThreadType__E                                   
2001c629  ti_sysbios_BIOS_startFunc__I                                       
2001d9d9  ti_sysbios_BIOS_start__E                                           
2002a88c  ti_sysbios_family_arm_cc32xx_Seconds_Module__state__V              
20017929  ti_sysbios_family_arm_cc32xx_Seconds_getCount__I                   
2001b061  ti_sysbios_family_arm_cc32xx_Seconds_get__E                        
2001a1a1  ti_sysbios_family_arm_cc32xx_Seconds_set__E                        
2002a504  ti_sysbios_family_arm_m3_Hwi_E_NMI__C                              
2002a508  ti_sysbios_family_arm_m3_Hwi_E_alreadyDefined__C                   
2002a50c  ti_sysbios_family_arm_m3_Hwi_E_busFault__C                         
2002a510  ti_sysbios_family_arm_m3_Hwi_E_debugMon__C                         
2002a514  ti_sysbios_family_arm_m3_Hwi_E_hardFault__C                        
2002a518  ti_sysbios_family_arm_m3_Hwi_E_memFault__C                         
2002a51c  ti_sysbios_family_arm_m3_Hwi_E_noIsr__C                            
2002a520  ti_sysbios_family_arm_m3_Hwi_E_reserved__C                         
2002a524  ti_sysbios_family_arm_m3_Hwi_E_svCall__C                           
2002a528  ti_sysbios_family_arm_m3_Hwi_E_usageFault__C                       
2001d3d5  ti_sysbios_family_arm_m3_Hwi_Handle__label__S                      
2001b529  ti_sysbios_family_arm_m3_Hwi_Instance_finalize__E                  
20015ab9  ti_sysbios_family_arm_m3_Hwi_Instance_init__E                      
2002a8b4  ti_sysbios_family_arm_m3_Hwi_Module_State_0_excActive__A           
2002a8b8  ti_sysbios_family_arm_m3_Hwi_Module_State_0_excContext__A          
2002a8bc  ti_sysbios_family_arm_m3_Hwi_Module_State_0_excStack__A            
20029762  ti_sysbios_family_arm_m3_Hwi_Module__id__C                         
2002a894  ti_sysbios_family_arm_m3_Hwi_Module__root__V                       
2001d3ed  ti_sysbios_family_arm_m3_Hwi_Module__startupDone__F                
2001d3ed  ti_sysbios_family_arm_m3_Hwi_Module__startupDone__S                
2002af4c  ti_sysbios_family_arm_m3_Hwi_Module__state__V                      
20019351  ti_sysbios_family_arm_m3_Hwi_Module_startup__E                     
2002a52c  ti_sysbios_family_arm_m3_Hwi_NUM_INTERRUPTS__C                     
2002a220  ti_sysbios_family_arm_m3_Hwi_Object__DESC__C                       
20029ed0  ti_sysbios_family_arm_m3_Hwi_Object__PARAMS__C                     
2002a530  ti_sysbios_family_arm_m3_Hwi_Object__count__C                      
2001ce91  ti_sysbios_family_arm_m3_Hwi_Object__destruct__S                   
2001d779  ti_sysbios_family_arm_m3_Hwi_Object__get__S                        
2002a89c  ti_sysbios_family_arm_m3_Hwi_Object__table__V                      
2001dc41  ti_sysbios_family_arm_m3_Hwi_Params__init__S                       
2002a534  ti_sysbios_family_arm_m3_Hwi_ccr__C                                
2001ca79  ti_sysbios_family_arm_m3_Hwi_clearInterrupt__E                     
20018dd1  ti_sysbios_family_arm_m3_Hwi_construct                             
20017925  ti_sysbios_family_arm_m3_Hwi_destruct                              
2001dc51  ti_sysbios_family_arm_m3_Hwi_disableFxn__E                         
20019be1  ti_sysbios_family_arm_m3_Hwi_disableInterrupt__E                   
20018231  ti_sysbios_family_arm_m3_Hwi_dispatchC__I                          
20027fd8  ti_sysbios_family_arm_m3_Hwi_dispatchTable                         
2001307d  ti_sysbios_family_arm_m3_Hwi_dispatch__I                           
2001de51  ti_sysbios_family_arm_m3_Hwi_doSwiRestore__I                       
2001dea1  ti_sysbios_family_arm_m3_Hwi_doTaskRestore__I                      
20019c29  ti_sysbios_family_arm_m3_Hwi_enableInterrupt__E                    
2000f7f9  ti_sysbios_family_arm_m3_Hwi_excBusFault__I                        
20013d99  ti_sysbios_family_arm_m3_Hwi_excDebugMon__I                        
20009801  ti_sysbios_family_arm_m3_Hwi_excDumpRegs__I                        
2001ca99  ti_sysbios_family_arm_m3_Hwi_excHandlerAsm__I                      
2002a538  ti_sysbios_family_arm_m3_Hwi_excHandlerFunc__C                     
2000d549  ti_sysbios_family_arm_m3_Hwi_excHandlerMax__I                      
2001cab9  ti_sysbios_family_arm_m3_Hwi_excHandler__I                         
20013e59  ti_sysbios_family_arm_m3_Hwi_excHardFault__I                       
2002a4dc  ti_sysbios_family_arm_m3_Hwi_excHookFuncs__A                       
2002a53c  ti_sysbios_family_arm_m3_Hwi_excHookFuncs__C                       
20010571  ti_sysbios_family_arm_m3_Hwi_excMemFault__I                        
2001b561  ti_sysbios_family_arm_m3_Hwi_excNmi__I                             
2001b099  ti_sysbios_family_arm_m3_Hwi_excNoIsr__I                           
20019c71  ti_sysbios_family_arm_m3_Hwi_excReserved__I                        
2001ab29  ti_sysbios_family_arm_m3_Hwi_excSvCall__I                          
2000f971  ti_sysbios_family_arm_m3_Hwi_excUsageFault__I                      
2001a1e9  ti_sysbios_family_arm_m3_Hwi_getStackInfo__E                       
20016521  ti_sysbios_family_arm_m3_Hwi_initNVIC__E                           
20019cb9  ti_sysbios_family_arm_m3_Hwi_initStacks__E                         
2002a540  ti_sysbios_family_arm_m3_Hwi_nullIsrFunc__C                        
e000e000  ti_sysbios_family_arm_m3_Hwi_nvic                                  
2001d115  ti_sysbios_family_arm_m3_Hwi_pendSV__I                             
200169d1  ti_sysbios_family_arm_m3_Hwi_postInit__I                           
2002a544  ti_sysbios_family_arm_m3_Hwi_priGroup__C                           
20004000  ti_sysbios_family_arm_m3_Hwi_resetVectors                          
2001dea9  ti_sysbios_family_arm_m3_Hwi_restoreFxn__E                         
2001d12d  ti_sysbios_family_arm_m3_Hwi_return                                
2001de59  ti_sysbios_family_arm_m3_Hwi_startup__E                            
2001d791  ti_sysbios_family_arm_m3_Hwi_switchFromBootStack__E                
20017995  ti_sysbios_family_arm_m3_TaskSupport_Module__startupDone__S        
20019789  ti_sysbios_family_arm_m3_TaskSupport_buildTaskStack                
2001dc61  ti_sysbios_family_arm_m3_TaskSupport_checkStack__E                 
2001dc71  ti_sysbios_family_arm_m3_TaskSupport_getStackAlignment__E          
2001d9e9  ti_sysbios_family_arm_m3_TaskSupport_glue                          
2002a548  ti_sysbios_family_arm_m3_TaskSupport_stackAlignment__C             
2001ba79  ti_sysbios_family_arm_m3_TaskSupport_start__E                      
2001d9f9  ti_sysbios_family_arm_m3_TaskSupport_swap__E                       
2002a54c  ti_sysbios_family_arm_m3_Timer_E_cannotSupport__C                  
20029f86  ti_sysbios_family_arm_m3_Timer_Module__id__C                       
2002a8c0  ti_sysbios_family_arm_m3_Timer_Module__root__V                     
2001d405  ti_sysbios_family_arm_m3_Timer_Module__startupDone__F              
2001d405  ti_sysbios_family_arm_m3_Timer_Module__startupDone__S              
2002a8c8  ti_sysbios_family_arm_m3_Timer_Module__state__V                    
2001c651  ti_sysbios_family_arm_m3_Timer_Module_startup__E                   
2002afb0  ti_sysbios_family_arm_m3_Timer_Object__table__V                    
2001dee1  ti_sysbios_family_arm_m3_Timer_getMaxTicks__E                      
20019d01  ti_sysbios_family_arm_m3_Timer_initDevice__I                       
2001b599  ti_sysbios_family_arm_m3_Timer_periodicStub__I                     
2001c679  ti_sysbios_family_arm_m3_Timer_postInit__I                         
2001ab69  ti_sysbios_family_arm_m3_Timer_setPeriodMicroSecs__E               
20019d49  ti_sysbios_family_arm_m3_Timer_setPeriod__E                        
20019079  ti_sysbios_family_arm_m3_Timer_start__E                            
2002a550  ti_sysbios_family_arm_m3_Timer_startupNeeded__C                    
2001c6a1  ti_sysbios_family_arm_m3_Timer_startup__E                          
2001ceb1  ti_sysbios_family_arm_m3_Timer_stop__E                             
2001cce9  ti_sysbios_family_xxx_Hwi_switchAndRunFunc                         
2001d41d  ti_sysbios_gates_GateHwi_Handle__label__S                          
2001df09  ti_sysbios_gates_GateHwi_Instance_init__E                          
2002a108  ti_sysbios_gates_GateHwi_Module__FXNS__C                           
2002a8d4  ti_sysbios_gates_GateHwi_Module__root__V                           
2002a240  ti_sysbios_gates_GateHwi_Object__DESC__C                           
2002a3b0  ti_sysbios_gates_GateHwi_Object__PARAMS__C                         
2001baa9  ti_sysbios_gates_GateHwi_Object__create__S                         
2001cad9  ti_sysbios_gates_GateHwi_Object__delete__S                         
2002a8dc  ti_sysbios_gates_GateHwi_Object__table__V                          
2001dc81  ti_sysbios_gates_GateHwi_enter__E                                  
2001deb1  ti_sysbios_gates_GateHwi_leave__E                                  
2001dee9  ti_sysbios_gates_GateHwi_query__E                                  
2001d435  ti_sysbios_gates_GateMutex_Handle__label__S                        
2002a554  ti_sysbios_gates_GateMutex_Instance_State_sem__O                   
2001da09  ti_sysbios_gates_GateMutex_Instance_finalize__E                    
2001ced1  ti_sysbios_gates_GateMutex_Instance_init__E                        
2002a12c  ti_sysbios_gates_GateMutex_Module__FXNS__C                         
2002a8e0  ti_sysbios_gates_GateMutex_Module__root__V                         
2002a260  ti_sysbios_gates_GateMutex_Object__DESC__C                         
2002a3c8  ti_sysbios_gates_GateMutex_Object__PARAMS__C                       
2001bad9  ti_sysbios_gates_GateMutex_Object__create__S                       
2001c6c5  ti_sysbios_gates_GateMutex_Object__delete__S                       
2002af14  ti_sysbios_gates_GateMutex_Object__table__V                        
2001bb09  ti_sysbios_gates_GateMutex_enter__E                                
2001d451  ti_sysbios_gates_GateMutex_leave__E                                
2001def1  ti_sysbios_gates_GateMutex_query__E                                
2002a558  ti_sysbios_hal_Hwi_E_stackOverflow__C                              
2001d3d5  ti_sysbios_hal_Hwi_HwiProxy_Handle__label__S                       
2001d3ed  ti_sysbios_hal_Hwi_HwiProxy_Module__startupDone__S                 
2001dc41  ti_sysbios_hal_Hwi_HwiProxy_Params__init__S                        
2001ca79  ti_sysbios_hal_Hwi_HwiProxy_clearInterrupt__E                      
20019be1  ti_sysbios_hal_Hwi_HwiProxy_disableInterrupt__E                    
2001dc51  ti_sysbios_hal_Hwi_HwiProxy_disable__E                             
20019c29  ti_sysbios_hal_Hwi_HwiProxy_enableInterrupt__E                     
2001a1e9  ti_sysbios_hal_Hwi_HwiProxy_getStackInfo__E                        
2001dea9  ti_sysbios_hal_Hwi_HwiProxy_restore__E                             
2001de59  ti_sysbios_hal_Hwi_HwiProxy_startup__E                             
2001d791  ti_sysbios_hal_Hwi_HwiProxy_switchFromBootStack__E                 
2002a1fe  ti_sysbios_hal_Hwi_Module__id__C                                   
2002a8e8  ti_sysbios_hal_Hwi_Module__root__V                                 
2001d8b1  ti_sysbios_hal_Hwi_Module_startup__E                               
2001b5d1  ti_sysbios_hal_Hwi_checkStack                                      
2001b7a1  ti_sysbios_hal_Hwi_initStack                                       
2001b061  ti_sysbios_hal_Seconds_SecondsProxy_get__E                         
2001a1a1  ti_sysbios_hal_Seconds_SecondsProxy_set__E                         
2002a55c  ti_sysbios_heaps_HeapMem_E_memory__C                               
2001d469  ti_sysbios_heaps_HeapMem_Handle__label__S                          
2001e000  ti_sysbios_heaps_HeapMem_Instance_State_0_buf__A                   
2001a889  ti_sysbios_heaps_HeapMem_Instance_init__E                          
2001d435  ti_sysbios_heaps_HeapMem_Module_GateProxy_Handle__label__S         
2001c6c5  ti_sysbios_heaps_HeapMem_Module_GateProxy_Object__delete__S        
20017a05  ti_sysbios_heaps_HeapMem_Module_GateProxy_enter__E                 
20017a75  ti_sysbios_heaps_HeapMem_Module_GateProxy_leave__E                 
2001def1  ti_sysbios_heaps_HeapMem_Module_GateProxy_query__E                 
2002a050  ti_sysbios_heaps_HeapMem_Module__FXNS__C                           
2002a560  ti_sysbios_heaps_HeapMem_Module__gateObj__C                        
2002a66c  ti_sysbios_heaps_HeapMem_Module__id__C                             
2002a8f0  ti_sysbios_heaps_HeapMem_Module__root__V                           
2002a280  ti_sysbios_heaps_HeapMem_Object__DESC__C                           
2002a150  ti_sysbios_heaps_HeapMem_Object__PARAMS__C                         
2002a564  ti_sysbios_heaps_HeapMem_Object__count__C                          
2001bb39  ti_sysbios_heaps_HeapMem_Object__create__S                         
2001caf9  ti_sysbios_heaps_HeapMem_Object__delete__S                         
2001d7a5  ti_sysbios_heaps_HeapMem_Object__get__S                            
2002a8f8  ti_sysbios_heaps_HeapMem_Object__table__V                          
20013151  ti_sysbios_heaps_HeapMem_alloc__E                                  
20016e49  ti_sysbios_heaps_HeapMem_free__E                                   
200197d9  ti_sysbios_heaps_HeapMem_getStats__E                               
2001aba9  ti_sysbios_heaps_HeapMem_init__I                                   
2001deb9  ti_sysbios_heaps_HeapMem_isBlocking__E                             
2002a568  ti_sysbios_heaps_HeapMem_reqAlign__C                               
2001cef1  ti_sysbios_knl_Clock_Instance_finalize__E                          
200193a1  ti_sysbios_knl_Clock_Instance_init__E                              
2002a56c  ti_sysbios_knl_Clock_Module_State_clockQ__O                        
2002a910  ti_sysbios_knl_Clock_Module__root__V                               
2002b010  ti_sysbios_knl_Clock_Module__state__V                              
2001c6e9  ti_sysbios_knl_Clock_Module_startup__E                             
2002a2a0  ti_sysbios_knl_Clock_Object__DESC__C                               
2002a174  ti_sysbios_knl_Clock_Object__PARAMS__C                             
2001cb19  ti_sysbios_knl_Clock_Object__destruct__S                           
2001dc8d  ti_sysbios_knl_Clock_Params__init__S                               
2001d405  ti_sysbios_knl_Clock_TimerProxy_Module__startupDone__S             
2001822d  ti_sysbios_knl_Clock_TimerProxy_getMaxTicks__E                     
2001871d  ti_sysbios_knl_Clock_TimerProxy_setPeriodMicroSecs__E              
2001877d  ti_sysbios_knl_Clock_TimerProxy_start__E                           
2001c6a1  ti_sysbios_knl_Clock_TimerProxy_startup__E                         
200187dd  ti_sysbios_knl_Clock_TimerProxy_stop__E                            
2001c219  ti_sysbios_knl_Clock_addI__E                                       
2001b605  ti_sysbios_knl_Clock_construct                                     
200197d5  ti_sysbios_knl_Clock_destruct                                      
2001bf29  ti_sysbios_knl_Clock_doTick__I                                     
2001abe9  ti_sysbios_knl_Clock_getTicksUntilTimeout__E                       
2001dc99  ti_sysbios_knl_Clock_getTicks__E                                   
2001df11  ti_sysbios_knl_Clock_logTick__E                                    
2001dca9  ti_sysbios_knl_Clock_setTicks__E                                   
2001def9  ti_sysbios_knl_Clock_setTimeout__E                                 
2001c711  ti_sysbios_knl_Clock_start__E                                      
2001dec1  ti_sysbios_knl_Clock_stop__E                                       
20029761  ti_sysbios_knl_Clock_tickMode__C                                   
2002a570  ti_sysbios_knl_Clock_tickPeriod__C                                 
2001d7b9  ti_sysbios_knl_Clock_tickReconfig__E                               
2002a684  ti_sysbios_knl_Clock_tickSource__C                                 
2001dcb9  ti_sysbios_knl_Clock_tickStart__E                                  
2001dcc9  ti_sysbios_knl_Clock_tickStop__E                                   
2001abe9  ti_sysbios_knl_Clock_walkQueuePeriodic__E                          
20017999  ti_sysbios_knl_Clock_workFunc__E                                   
2002a574  ti_sysbios_knl_Event_Instance_State_pendQ__O                       
2001d7d1  ti_sysbios_knl_Event_Instance_init__E                              
2002a918  ti_sysbios_knl_Event_Module__root__V                               
2002a2c0  ti_sysbios_knl_Event_Object__DESC__C                               
2002a3e0  ti_sysbios_knl_Event_Object__PARAMS__C                             
2001cb39  ti_sysbios_knl_Event_Object__delete__S                             
2001bb69  ti_sysbios_knl_Event_create                                        
20019825  ti_sysbios_knl_Event_delete                                        
2001bb99  ti_sysbios_knl_Event_pendTimeout__I                                
20010421  ti_sysbios_knl_Event_pend__E                                       
20015fc9  ti_sysbios_knl_Event_post__E                                       
2002a4e4  ti_sysbios_knl_Idle_funcList__A                                    
2002a4ec  ti_sysbios_knl_Idle_funcList__C                                    
2001db31  ti_sysbios_knl_Idle_loop__E                                        
2001cb59  ti_sysbios_knl_Idle_run__E                                         
2002a578  ti_sysbios_knl_Mailbox_Instance_State_dataQue__O                   
2002a57c  ti_sysbios_knl_Mailbox_Instance_State_dataSem__O                   
2002a580  ti_sysbios_knl_Mailbox_Instance_State_freeQue__O                   
2002a584  ti_sysbios_knl_Mailbox_Instance_State_freeSem__O                   
20017691  ti_sysbios_knl_Mailbox_Instance_finalize__E                        
20012d39  ti_sysbios_knl_Mailbox_Instance_init__E                            
2002a920  ti_sysbios_knl_Mailbox_Module__root__V                             
20019d91  ti_sysbios_knl_Mailbox_Module_startup__E                           
2002a2e0  ti_sysbios_knl_Mailbox_Object__DESC__C                             
20029e9c  ti_sysbios_knl_Mailbox_Object__PARAMS__C                           
2002a588  ti_sysbios_knl_Mailbox_Object__count__C                            
2001cb79  ti_sysbios_knl_Mailbox_Object__delete__S                           
2001da19  ti_sysbios_knl_Mailbox_Object__get__S                              
20018295  ti_sysbios_knl_Mailbox_create                                      
20019875  ti_sysbios_knl_Mailbox_delete                                      
2002a58c  ti_sysbios_knl_Mailbox_maxTypeAlign__C                             
20017379  ti_sysbios_knl_Mailbox_pend__E                                     
2001bbc9  ti_sysbios_knl_Mailbox_postInit__I                                 
200165a9  ti_sysbios_knl_Mailbox_post__E                                     
2001dec9  ti_sysbios_knl_Queue_Instance_init__E                              
2002a928  ti_sysbios_knl_Queue_Module__root__V                               
2002a300  ti_sysbios_knl_Queue_Object__DESC__C                               
2002a3f8  ti_sysbios_knl_Queue_Object__PARAMS__C                             
2001cf0d  ti_sysbios_knl_Queue_Object__destruct__S                           
2001dcd5  ti_sysbios_knl_Queue_Object__get__S                                
2001bf55  ti_sysbios_knl_Queue_construct                                     
2001a19d  ti_sysbios_knl_Queue_destruct                                      
2001db41  ti_sysbios_knl_Queue_empty__E                                      
2001cf29  ti_sysbios_knl_Queue_get__E                                        
2001cf49  ti_sysbios_knl_Queue_put__E                                        
2002a590  ti_sysbios_knl_Semaphore_Instance_State_pendQ__O                   
2001da29  ti_sysbios_knl_Semaphore_Instance_finalize__E                      
2001c739  ti_sysbios_knl_Semaphore_Instance_init__E                          
2002a930  ti_sysbios_knl_Semaphore_Module__root__V                           
2002a320  ti_sysbios_knl_Semaphore_Object__DESC__C                           
2002a198  ti_sysbios_knl_Semaphore_Object__PARAMS__C                         
2001c75d  ti_sysbios_knl_Semaphore_Object__delete__S                         
2001cb99  ti_sysbios_knl_Semaphore_Object__destruct__S                       
2001dce1  ti_sysbios_knl_Semaphore_Params__init__S                           
2001bbf9  ti_sysbios_knl_Semaphore_construct                                 
2001b639  ti_sysbios_knl_Semaphore_create                                    
2001a1e5  ti_sysbios_knl_Semaphore_delete                                    
2001a22d  ti_sysbios_knl_Semaphore_destruct                                  
2001bc29  ti_sysbios_knl_Semaphore_pendTimeout__I                            
2000fad9  ti_sysbios_knl_Semaphore_pend__E                                   
20017701  ti_sysbios_knl_Semaphore_post__E                                   
2001d481  ti_sysbios_knl_Swi_Handle__label__S                                
2002adb0  ti_sysbios_knl_Swi_Module_State_0_readyQ__A                        
2002a938  ti_sysbios_knl_Swi_Module__root__V                                 
2002a940  ti_sysbios_knl_Swi_Module__state__V                                
2001c241  ti_sysbios_knl_Swi_Module_startup__E                               
2002a594  ti_sysbios_knl_Swi_Object__count__C                                
2001d7e5  ti_sysbios_knl_Swi_Object__get__S                                  
2002afe0  ti_sysbios_knl_Swi_Object__table__V                                
2001da39  ti_sysbios_knl_Swi_disable__E                                      
2001a231  ti_sysbios_knl_Swi_post__E                                         
20017a09  ti_sysbios_knl_Swi_restoreHwi__E                                   
2001ac29  ti_sysbios_knl_Swi_restore__E                                      
20019829  ti_sysbios_knl_Swi_runLoop__I                                      
20018721  ti_sysbios_knl_Swi_run__I                                          
20018781  ti_sysbios_knl_Swi_schedule__I                                     
2001ded1  ti_sysbios_knl_Swi_startup__E                                      
2002a598  ti_sysbios_knl_Task_E_spOutOfBounds__C                             
2002a59c  ti_sysbios_knl_Task_E_stackOverflow__C                             
2001d499  ti_sysbios_knl_Task_Handle__label__S                               
20026000  ti_sysbios_knl_Task_Instance_State_0_stack__A                      
20013f19  ti_sysbios_knl_Task_Instance_finalize__E                           
20013221  ti_sysbios_knl_Task_Instance_init__E                               
2002a984  ti_sysbios_knl_Task_Module_State_0_idleTask__A                     
2002a964  ti_sysbios_knl_Task_Module_State_0_readyQ__A                       
2002a5a0  ti_sysbios_knl_Task_Module_State_inactiveQ__O                      
2002a66e  ti_sysbios_knl_Task_Module__id__C                                  
2002a95c  ti_sysbios_knl_Task_Module__root__V                                
2002aed0  ti_sysbios_knl_Task_Module__state__V                               
200187e1  ti_sysbios_knl_Task_Module_startup__E                              
2002a340  ti_sysbios_knl_Task_Object__DESC__C                                
20029d18  ti_sysbios_knl_Task_Object__PARAMS__C                              
2002a5a4  ti_sysbios_knl_Task_Object__count__C                               
2001cbb9  ti_sysbios_knl_Task_Object__delete__S                              
2001da49  ti_sysbios_knl_Task_Object__get__S                                 
2002ae84  ti_sysbios_knl_Task_Object__table__V                               
2001dced  ti_sysbios_knl_Task_Params__init__S                                
20017995  ti_sysbios_knl_Task_SupportProxy_Module__startupDone__S            
2001dc61  ti_sysbios_knl_Task_SupportProxy_checkStack__E                     
2001dc71  ti_sysbios_knl_Task_SupportProxy_getStackAlignment__E              
2001ba79  ti_sysbios_knl_Task_SupportProxy_start__E                          
2001d9f9  ti_sysbios_knl_Task_SupportProxy_swap__E                           
2002a5a8  ti_sysbios_knl_Task_allBlockedFunc__C                              
20019879  ti_sysbios_knl_Task_allBlockedFunction__I                          
20014589  ti_sysbios_knl_Task_checkStacks__E                                 
2001883d  ti_sysbios_knl_Task_create                                         
2002a5ac  ti_sysbios_knl_Task_defaultStackHeap__C                            
2002a5b0  ti_sysbios_knl_Task_defaultStackSize__C                            
2001ab65  ti_sysbios_knl_Task_delete                                         
2001da59  ti_sysbios_knl_Task_disable__E                                     
2001cf69  ti_sysbios_knl_Task_enter__I                                       
20017a79  ti_sysbios_knl_Task_exit__E                                        
2002a5b4  ti_sysbios_knl_Task_numConstructedTasks__C                         
20015141  ti_sysbios_knl_Task_postInit__I                                    
2001b0d1  ti_sysbios_knl_Task_processVitalTaskFlag__I                        
2001c781  ti_sysbios_knl_Task_restoreHwi__E                                  
2001bf81  ti_sysbios_knl_Task_restore__E                                     
20018601  ti_sysbios_knl_Task_schedule__I                                    
2001d4b1  ti_sysbios_knl_Task_sleepTimeout__I                                
20013aa1  ti_sysbios_knl_Task_sleep__E                                       
20018899  ti_sysbios_knl_Task_startCore__E                                   
2001df01  ti_sysbios_knl_Task_startup__E                                     
2001da01  ti_sysbios_knl_Task_swapReturn                                     
2001bc59  ti_sysbios_knl_Task_unblockI__E                                    
2001d4c9  time                                                               
2001d7f9  timeUpdateHook                                                     
20028ef4  timeslap                                                           
20029288  tokenList                                                          
200198c5  uDMAChannelAssign                                                  
200182f9  uDMAChannelAttributeDisable                                        
2001ac65  uDMAChannelControlSet                                              
2001cf85  uDMAChannelEnable                                                  
2001c269  uDMAChannelIsEnabled                                               
20011ffd  uDMAChannelTransferSet                                             
2001dcf9  uDMAControlBaseGet                                                 
2001d80d  uDMAControlBaseSet                                                 
2001dd05  uDMAEnable                                                         
2001dd11  uDMAErrorStatusClear                                               
2001dd1d  uDMAIntStatus                                                      
20029f00  uartCC3200HWAttrs                                                  
20028b00  uartCC3200Objects                                                  
20028fa4  uartCC3200RingBuffer                                               
200291e0  ucVendorStr                                                        
2002928c  uiChannel                                                          
2000bcdd  unlink                                                             
2000cf29  updateota                                                          
2002a6b4  updateotavariable                                                  
20029220  userid                                                             
2002a854  variable                                                           
2000837d  vinayudp                                                           
2002a5b8  wiFiCC3200HWAttrs                                                  
20029018  wiFiCC3200Objects                                                  
2000bc4d  write                                                              
2002a5bc  xdc_runtime_Assert_E_assertFailed__C                               
200190cd  xdc_runtime_Assert_raise__I                                        
2002a5c0  xdc_runtime_Core_A_initializedParams__C                            
2002a5c4  xdc_runtime_Core_Module__diagsEnabled__C                           
2002a5c8  xdc_runtime_Core_Module__diagsIncluded__C                          
2002a5cc  xdc_runtime_Core_Module__diagsMask__C                              
2002a670  xdc_runtime_Core_Module__id__C                                     
2001b66d  xdc_runtime_Core_assignLabel__I                                    
20019ef1  xdc_runtime_Core_assignParams__I                                   
200132ed  xdc_runtime_Core_constructObject__I                                
20011c11  xdc_runtime_Core_createObject__I                                   
20018037  xdc_runtime_Core_deleteObject__I                                   
2002a5d0  xdc_runtime_Error_E_memory__C                                      
2002a5d4  xdc_runtime_Error_Module__diagsEnabled__C                          
2002a5d8  xdc_runtime_Error_Module__diagsIncluded__C                         
2002a5dc  xdc_runtime_Error_Module__diagsMask__C                             
2002a672  xdc_runtime_Error_Module__loggerDefined__C                         
2002a5e0  xdc_runtime_Error_Module__loggerFxn8__C                            
2002a5e4  xdc_runtime_Error_Module__loggerObj__C                             
2002a988  xdc_runtime_Error_Module__state__V                                 
2001d4e1  xdc_runtime_Error_check__E                                         
2001aba5  xdc_runtime_Error_getSite__E                                       
2001dd29  xdc_runtime_Error_init__E                                          
2002a674  xdc_runtime_Error_maxDepth__C                                      
200113c1  xdc_runtime_Error_policyDefault__E                                 
2002a5e8  xdc_runtime_Error_policyFxn__C                                     
2002a685  xdc_runtime_Error_policy__C                                        
20017ae5  xdc_runtime_Error_print__E                                         
2002a5ec  xdc_runtime_Error_raiseHook__C                                     
2001cfbd  xdc_runtime_Error_raiseX__E                                        
2001a275  xdc_runtime_Error_setX__E                                          
2001dd35  xdc_runtime_Gate_enterSystem__E                                    
2001da69  xdc_runtime_Gate_leaveSystem__E                                    
2002a5f0  xdc_runtime_IGateProvider_Interface__BASE__C                       
2002a5f4  xdc_runtime_IHeap_Interface__BASE__C                               
2002a5f8  xdc_runtime_IModule_Interface__BASE__C                             
2002a5fc  xdc_runtime_Log_L_error__C                                         
2001d41d  xdc_runtime_Main_Module_GateProxy_Handle__label__S                 
2001cad9  xdc_runtime_Main_Module_GateProxy_Object__delete__S                
2001dee9  xdc_runtime_Main_Module_GateProxy_query__E                         
2002a600  xdc_runtime_Main_Module__diagsEnabled__C                           
2002a604  xdc_runtime_Main_Module__diagsIncluded__C                          
2002a608  xdc_runtime_Main_Module__diagsMask__C                              
2002a676  xdc_runtime_Main_Module__id__C                                     
2002a678  xdc_runtime_Main_Module__loggerDefined__C                          
2002a60c  xdc_runtime_Main_Module__loggerFxn2__C                             
2002a610  xdc_runtime_Main_Module__loggerFxn4__C                             
2002a614  xdc_runtime_Main_Module__loggerObj__C                              
2001d469  xdc_runtime_Memory_HeapProxy_Handle__label__S                      
2001caf9  xdc_runtime_Memory_HeapProxy_Object__delete__S                     
2001ddef  xdc_runtime_Memory_HeapProxy_alloc__E                              
2001ddf9  xdc_runtime_Memory_HeapProxy_free__E                               
2002a67a  xdc_runtime_Memory_Module__id__C                                   
2002a98c  xdc_runtime_Memory_Module__state__V                                
20017b51  xdc_runtime_Memory_alloc__E                                        
2001dd41  xdc_runtime_Memory_calloc__E                                       
2002a618  xdc_runtime_Memory_defaultHeapInstance__C                          
2001da79  xdc_runtime_Memory_free__E                                         
2001dd4d  xdc_runtime_Memory_getMaxDefaultTypeAlign__E                       
2001cfd9  xdc_runtime_Memory_valloc__E                                       
2002a990  xdc_runtime_Registry_Module__state__V                              
2001cbd9  xdc_runtime_Registry_findById__E                                   
2002a998  xdc_runtime_Startup_Module__state__V                               
00000001  xdc_runtime_Startup__EXECFXN__C                                    
00000001  xdc_runtime_Startup__RESETFXN__C                                   
2002a61c  xdc_runtime_Startup_execImpl__C                                    
200193f1  xdc_runtime_Startup_exec__E                                        
2001d8c3  xdc_runtime_Startup_exec__I                                        
2002a4b0  xdc_runtime_Startup_firstFxns__A                                   
2002a4f4  xdc_runtime_Startup_firstFxns__C                                   
2002a4fc  xdc_runtime_Startup_lastFxns__C                                    
2002a620  xdc_runtime_Startup_maxPasses__C                                   
2000e3e7  xdc_runtime_Startup_reset__I                                       
2002a488  xdc_runtime_Startup_sfxnRts__A                                     
2002a624  xdc_runtime_Startup_sfxnRts__C                                     
2002a360  xdc_runtime_Startup_sfxnTab__A                                     
2002a628  xdc_runtime_Startup_sfxnTab__C                                     
20011e0d  xdc_runtime_Startup_startMods__I                                   
2002a62c  xdc_runtime_SysCallback_abortFxn__C                                
2001da89  xdc_runtime_SysCallback_abort__E                                   
2000ea73  xdc_runtime_SysCallback_defaultExit                                
2000f7f7  xdc_runtime_SysCallback_defaultFlush                               
2002a630  xdc_runtime_SysCallback_exitFxn__C                                 
2001da99  xdc_runtime_SysCallback_exit__E                                    
2002a634  xdc_runtime_SysCallback_flushFxn__C                                
2001daa9  xdc_runtime_SysCallback_flush__E                                   
2002a638  xdc_runtime_SysCallback_putchFxn__C                                
2001dab9  xdc_runtime_SysCallback_putch__E                                   
2002a63c  xdc_runtime_SysCallback_readyFxn__C                                
2001dac9  xdc_runtime_SysCallback_ready__E                                   
2001d41d  xdc_runtime_System_Module_GateProxy_Handle__label__S               
2001cad9  xdc_runtime_System_Module_GateProxy_Object__delete__S              
2001abe5  xdc_runtime_System_Module_GateProxy_enter__E                       
2001ac25  xdc_runtime_System_Module_GateProxy_leave__E                       
2001dee9  xdc_runtime_System_Module_GateProxy_query__E                       
2002a9a0  xdc_runtime_System_Module_State_0_atexitHandlers__A                
2002a640  xdc_runtime_System_Module__gateObj__C                              
2002a9a8  xdc_runtime_System_Module__state__V                                
2001ded7  xdc_runtime_System_Module_startup__E                               
2001da89  xdc_runtime_System_SupportProxy_abort__E                           
2001da99  xdc_runtime_System_SupportProxy_exit__E                            
2001daa9  xdc_runtime_System_SupportProxy_flush__E                           
2001dab9  xdc_runtime_System_SupportProxy_putch__E                           
2001dac9  xdc_runtime_System_SupportProxy_ready__E                           
2002a644  xdc_runtime_System_abortFxn__C                                     
2001a0d5  xdc_runtime_System_abortStd__E                                     
2001cff5  xdc_runtime_System_abort__E                                        
2001d12f  xdc_runtime_System_aprintf__E                                      
2001b05d  xdc_runtime_System_aprintf_va__F                                   
2001b109  xdc_runtime_System_atexit__E                                       
2001c3e7  xdc_runtime_System_avprintf__E                                     
2000b2a9  xdc_runtime_System_doPrint__I                                      
2002a648  xdc_runtime_System_exitFxn__C                                      
2001a0dd  xdc_runtime_System_exitStd__E                                      
2001d4f9  xdc_runtime_System_exit__E                                         
2002a64c  xdc_runtime_System_extendFxn__C                                    
20017771  xdc_runtime_System_formatNum__I                                    
2002a650  xdc_runtime_System_maxAtexitHandlers__C                            
20011f05  xdc_runtime_System_printfExtend__I                                 
2001d149  xdc_runtime_System_printf__E                                       
2001b525  xdc_runtime_System_printf_va__F                                    
2001bc89  xdc_runtime_System_processAtExit__E                                
2001c0d7  xdc_runtime_System_putchar__I                                      
2001c7a5  xdc_runtime_System_vprintf__E                                      
2001dad9  xdc_runtime_System_vsnprintf__E                                    
2002a9b0  xdc_runtime_Text_Module__state__V                                  
2002a67c  xdc_runtime_Text_charCnt__C                                        
2002a686  xdc_runtime_Text_charTab__A                                        
2002a654  xdc_runtime_Text_charTab__C                                        
2001bfd9  xdc_runtime_Text_cordText__E                                       
2002a67e  xdc_runtime_Text_isLoaded__C                                       
2002a658  xdc_runtime_Text_nameEmpty__C                                      
2002a65c  xdc_runtime_Text_nameStatic__C                                     
2002a660  xdc_runtime_Text_nameUnknown__C                                    
2002a664  xdc_runtime_Text_nodeTab__A                                        
2001b6a1  xdc_runtime_Text_printVisFxn__I                                    
200188f5  xdc_runtime_Text_putLab__E                                         
20014ec5  xdc_runtime_Text_putMod__E                                         
200151dd  xdc_runtime_Text_putSite__E                                        
2002a680  xdc_runtime_Text_registryModsLastId__C                             
2001d511  xdc_runtime_Text_ropeText__E                                       
2002a682  xdc_runtime_Text_unnamedModsLastId__C                              
2002a668  xdc_runtime_Text_visitRopeFxn__C                                   
2001de71  xdc_runtime_Text_visitRope__I                                      
2001a2b9  xdc_runtime_Text_xprintf__I                                        


GLOBAL SYMBOLS: SORTED BY Symbol Address 

address   name                                                               
-------   ----                                                               
00000000  __ASM__                                                            
00000001  xdc_runtime_Startup__EXECFXN__C                                    
00000001  xdc_runtime_Startup__RESETFXN__C                                   
000000e4  __ISA__                                                            
000000f7  __PLAT__                                                           
0000011e  __TARG__                                                           
00000143  __TRDR__                                                           
00000400  __STACK_SIZE                                                       
20004000  ti_sysbios_family_arm_m3_Hwi_resetVectors                          
20004311  runAWSClient                                                       
20006385  __TI_printfi                                                       
2000668b  SPICC3200DMA_serviceISR                                            
2000668d  dexterpicontroller                                                 
2000760d  dynamic_power_1                                                    
20007d85  sl_Recv_eagain                                                     
20007dad  json_parse_update_check_resp                                       
20007ec7  json_parse_rsrc_metadata_url                                       
20007f03  json_parse_dropbox_metadata                                        
20008045  json_parse_dropbox_media_url                                       
20008097  http_skip_headers                                                  
2000815f  http_send_buf                                                      
20008163  http_recv_buf                                                      
20008177  http_extract_domain_by_url                                         
200081d7  http_connect_server                                                
200082bd  http_build_request                                                 
2000837d  vinayudp                                                           
20008f17  SPICC3200DMA_transferCancel                                        
20008f19  ParseJSONData                                                      
20009801  ti_sysbios_family_arm_m3_Hwi_excDumpRegs__I                        
20009c31  OtaClient_UpdateCheck                                              
20009cdf  OtaClient_ResourceNameConvert                                      
20009eab  OtaClient_ResourceMetadata                                         
20009f81  OtaClient_Init                                                     
20009fb3  OtaClient_GetNextUpdate                                            
20009fe5  OtaClient_ConnectServer                                            
2000a01b  OtaClient_CloseServer                                              
2000a05d  _OtaCleanToIdle                                                    
2000a07b  sl_extLib_OtaSet                                                   
2000a0fd  _WriteStatFile                                                     
2000a147  local_filter                                                       
2000a14b  _ReadStatFile                                                      
2000a18d  sl_extLib_OtaRun                                                   
2000a395  sl_extLib_OtaInit                                                  
2000a3ef  sl_extLib_OtaGet                                                   
2000a829  _SlDrvMsgRead                                                      
2000abc3  __aeabi_idiv0                                                      
2000abc5  SNTP_start                                                         
2000af4d  _readSignature                                                     
2000afa7  _RecvFileChunk                                                     
2000afb3  _ReadFileHeaders                                                   
2000b001  _OpenStorageFile                                                   
2000b063  CdnClient_SetFileInfo                                              
2000b06d  CdnClient_Run                                                      
2000b1a1  CdnClient_Init                                                     
2000b1d3  CdnClient_CloseServer                                              
2000b1f1  CdnClient_ConnectByUrl                                             
2000b2a9  xdc_runtime_System_doPrint__I                                      
2000b5f5  LogClient_Print                                                    
2000b737  LogClient_Init                                                     
2000b74f  LogClient_ConnectServer                                            
2000b785  LogClient_Close                                                    
2000b79d  LogClient_ConnectAndPrint                                          
2000bc4d  write                                                              
2000bcdd  remove                                                             
2000bcdd  unlink                                                             
2000bd01  rename                                                             
2000bd3f  remove_device                                                      
2000bd67  read                                                               
2000bd8b  open                                                               
2000be39  lseek                                                              
2000be5d  close                                                              
2000bead  add_device                                                         
2000bf59  jsmn_parse                                                         
2000c231  HOSTwrite                                                          
2000c27d  HOSTunlink                                                         
2000c2b5  HOSTtime                                                           
2000c2ef  HOSTrename                                                         
2000c34d  HOSTread                                                           
2000c399  HOSTopen                                                           
2000c3eb  HOSTlseek                                                          
2000c447  HOSTgetenv                                                         
2000c485  HOSTclose                                                          
2000c4bd  HOSTclock                                                          
2000c505  mktime                                                             
2000c7ad  __vla_dealloc                                                      
2000c835  __vla_dealloc_eh                                                   
2000c8b5  __vla_alloc                                                        
2000ca45  NetWiFi_init                                                       
2000ccc1  setStationMode                                                     
2000cf29  updateota                                                          
2000d13d  UARTCC3200_open                                                    
2000d345  slTask                                                             
2000d549  ti_sysbios_family_arm_m3_Hwi_excHandlerMax__I                      
2000d745  __aeabi_uldivmod                                                   
2000db29  aws_iot_mqtt_internal_init_header                                  
2000dcf7  ti_sysbios_BIOS_nullFunc__I                                        
2000ddc1  __TI_cleanup                                                       
2000dded  freopen                                                            
2000de17  fopen                                                              
2000debd  startNTP                                                           
2000e231  __aeabi_dsub                                                       
2000e23b  __aeabi_dadd                                                       
2000e3e7  xdc_runtime_Startup_reset__I                                       
2000e3e9  disconnectCallbackHandler                                          
2000e591  sl_WlanConnect                                                     
2000e739  flashFiledevice                                                    
2000ea73  xdc_runtime_SysCallback_defaultExit                                
2000ea75  power                                                              
2000ec05  OTAServerInfoSet                                                   
2000ed8d  PowerCC3200_sleepPolicy                                            
2000ef15  sl_extlib_FlcWriteFile                                             
2000ef73  sl_extlib_FlcTest                                                  
2000efa1  sl_extlib_FlcReadFile                                              
2000efb3  sl_extlib_FlcOpenFile                                              
2000eff5  sl_extlib_FlcIsPendingCommit                                       
2000f00d  sl_extlib_FlcCommit                                                
2000f045  sl_extlib_FlcCloseFile                                             
2000f04d  sl_extlib_FlcAbortFile                                             
2000f219  GPIO_setConfig                                                     
2000f683  HTTPCli_getResponseField                                           
2000f7f7  xdc_runtime_SysCallback_defaultFlush                               
2000f7f9  ti_sysbios_family_arm_m3_Hwi_excBusFault__I                        
2000f96d  ClockP_getCpuFreq                                                  
2000f971  ti_sysbios_family_arm_m3_Hwi_excUsageFault__I                      
2000fad5  HwiP_clearInterrupt                                                
2000fad9  ti_sysbios_knl_Semaphore_pend__E                                   
2000fc31  PinMuxConfig                                                       
2000fd85  SPICC3200DMA_transfer                                              
2001002d  HTTPCli_connect                                                    
2001017d  _SlDrvRxHdrRead                                                    
200102cd  aws_iot_mqtt_init                                                  
2001041d  HwiP_disable                                                       
20010421  ti_sysbios_knl_Event_pend__E                                       
20010571  ti_sysbios_family_arm_m3_Hwi_excMemFault__I                        
200107f9  philiphsidread                                                     
20010939  __aeabi_ddiv                                                       
20010a71  PRCMCC3200MCUInit                                                  
20010ba5  fputs                                                              
20010cb1  puts                                                               
20010f39  iot_tls_connect                                                    
20011065  SPICC3200DMA_open                                                  
200112a9  _SlDrvMsgWrite                                                     
200113c1  xdc_runtime_Error_policyDefault__E                                 
200114d9  strtoul                                                            
200115ed  _Dscale                                                            
20011a11  aws_iot_mqtt_internal_deserialize_publish                          
20011b11  deviceidread                                                       
20011c11  xdc_runtime_Core_createObject__I                                   
20011d11  __aeabi_dmul                                                       
20011e0d  xdc_runtime_Startup_startMods__I                                   
20011f05  xdc_runtime_System_printfExtend__I                                 
20011ffd  uDMAChannelTransferSet                                             
200120ed  _SlDrvDriverCBInit                                                 
2001257d  HTTPCli_sendRequest                                                
20012661  _SlDrvDataReadOp                                                   
20012821  TLS_create                                                         
200129d9  setvbuf                                                            
20012c65  sl_Select                                                          
20012d39  ti_sysbios_knl_Mailbox_Instance_init__E                            
20012e0d  _SlDrvWaitForPoolObj                                               
2001307d  ti_sysbios_family_arm_m3_Hwi_dispatch__I                           
2001314d  List_head                                                          
20013151  ti_sysbios_heaps_HeapMem_alloc__E                                  
2001321d  List_next                                                          
20013221  ti_sysbios_knl_Task_Instance_init__E                               
200132ed  xdc_runtime_Core_constructObject__I                                
20013481  _SlDrvReleasePoolObj                                               
20013611  __TI_doflush                                                       
2001365d  fflush                                                             
200136d9  sl_RecvFrom                                                        
2001385f  Ssock_startTLS                                                     
20013921  aws_iot_mqtt_internal_deserialize_ack                              
200139e1  aws_iot_mqtt_set_connect_params                                    
20013aa1  ti_sysbios_knl_Task_sleep__E                                       
20013b61  _Dnorm                                                             
20013cdd  sl_SendTo                                                          
20013d99  ti_sysbios_family_arm_m3_Hwi_excDebugMon__I                        
20013e55  Ssock_getSocket                                                    
20013e59  ti_sysbios_family_arm_m3_Hwi_excHardFault__I                       
20013f15  mem_Malloc                                                         
20013f19  ti_sysbios_knl_Task_Instance_finalize__E                           
20013fd5  aws_iot_mqtt_is_client_connected                                   
20014145  sl_NetAppDnsGetHostByName                                          
200141fd  Ssock_send                                                         
200142b3  aws_iot_mqtt_subscribe                                             
20014369  MQTTcallbackHandler                                                
2001441d  _SlDrvNetAppEventHandler                                           
20014585  __abort_execution                                                  
20014589  ti_sysbios_knl_Task_checkStacks__E                                 
2001463d  aws_iot_mqtt_publish                                               
200146ed  sl_Connect                                                         
2001479d  aws_iot_mqtt_yield                                                 
2001484d  _SlDrvDataWriteOp                                                  
200148f9  __TI_wrt_ok                                                        
2001495b  __TI_rd_ok                                                         
200149a5  CertConv_pem2der                                                   
20014a4f  iot_tls_read                                                       
20014af5  aws_iot_mqtt_internal_serialize_ack                                
20014b99  asctime                                                            
20014c3d  sl_Send                                                            
20014ce1  UARTCC3200_write                                                   
20014d85  SPIConfigSetExpClk                                                 
20014e25  __TI_auto_init                                                     
20014ec5  xdc_runtime_Text_putMod__E                                         
20015005  countdown_ms                                                       
200150a1  __aeabi_memcpy                                                     
200150a1  __aeabi_memcpy4                                                    
200150a1  __aeabi_memcpy8                                                    
200150a1  memcpy                                                             
2001513d  ti_sysbios_BIOS_RtsGateProxy_enter__E                              
20015141  ti_sysbios_knl_Task_postInit__I                                    
200151dd  xdc_runtime_Text_putSite__E                                        
20015277  UARTCC3200_control                                                 
2001530f  UARTCC3200_readPolling                                             
200153a9  _SlDrvMsgReadCmdCtx                                                
20015441  aws_iot_mqtt_internal_cycle_read                                   
20015571  __TI_closefile                                                     
200155d7  fclose                                                             
20015609  fputc                                                              
20015609  putc                                                               
2001568d  putchar                                                            
200156a1  sl_Stop                                                            
20015869  PRCMPeripheralClockGet                                             
200158fd  _SlFindAndSetActiveObj                                             
20015991  countdown_sec                                                      
20015ab9  ti_sysbios_family_arm_m3_Hwi_Instance_init__E                      
20015b4d  __aeabi_fdiv                                                       
20015be1  _SlDrvDriverCBDeinit                                               
20015d01  sl_Start                                                           
20015d91  smartConfigFxn                                                     
20015e21  HTTPCli_readResponseBody                                           
20015ead  UARTUtils_systemInit                                               
20015f39  _aws_iot_mqtt_internal_disconnect                                  
20015fc5  ti_sysbios_BIOS_RtsGateProxy_leave__E                              
20015fc9  ti_sysbios_knl_Event_post__E                                       
20016055  aws_iot_mqtt_internal_send_packet                                  
20016169  PRCMHibernateIntervalSet                                           
200161f1  PinConfigSet                                                       
20016279  UARTCC3200_close                                                   
20016301  aws_iot_mqtt_internal_wait_for_read                                
20016389  sl_FsRead                                                          
20016411  sl_FsWrite                                                         
20016521  ti_sysbios_family_arm_m3_Hwi_initNVIC__E                           
200165a9  ti_sysbios_knl_Mailbox_post__E                                     
20016631  __aeabi_cdcmpeq                                                    
20016631  __aeabi_cdcmple                                                    
200166b7  __aeabi_cdrcmple                                                   
2001673d  GPIO_init                                                          
200167c1  aws_iot_mqtt_connect                                               
20016845  aws_iot_mqtt_internal_serialize_zero                               
200168c9  iot_tls_init                                                       
200169d1  ti_sysbios_family_arm_m3_Hwi_postInit__I                           
20016a55  GPIOIntTypeSet                                                     
20016b59  WiFiCC3200_open                                                    
20016c59  SPIIntStatus                                                       
20016dcd  sl_NetCfgGet                                                       
20016e49  ti_sysbios_heaps_HeapMem_free__E                                   
20016fbb  __aeabi_fmul                                                       
20017035  __aeabi_memclr                                                     
20017035  __aeabi_memclr4                                                    
20017035  __aeabi_memclr8                                                    
20017037  __aeabi_memset                                                     
20017037  __aeabi_memset4                                                    
20017037  __aeabi_memset8                                                    
2001703d  memset                                                             
200170b1  VStartSimpleLinkSpawnTask                                          
20017129  aws_iot_mqtt_resubscribe                                           
200171a1  main                                                               
20017219  UARTConfigSetExpClk                                                
20017291  _SlDrvClassifyRxMsg                                                
20017379  ti_sysbios_knl_Mailbox_pend__E                                     
20017461  Power_sleep                                                        
200174d1  _SlDrvCmdOp                                                        
20017549  printf                                                             
200175b1  sl_FsClose                                                         
20017621  sl_WlanSmartConfigStart                                            
20017691  ti_sysbios_knl_Mailbox_Instance_finalize__E                        
20017701  ti_sysbios_knl_Semaphore_post__E                                   
20017771  xdc_runtime_System_formatNum__I                                    
200177e1  _SlDrvMsgReadSpawnCtx                                              
200178c1  fprintf                                                            
20017925  ti_sysbios_family_arm_m3_Hwi_destruct                              
20017929  ti_sysbios_family_arm_cc32xx_Seconds_getCount__I                   
20017995  ti_sysbios_family_arm_m3_TaskSupport_Module__startupDone__S        
20017995  ti_sysbios_knl_Task_SupportProxy_Module__startupDone__S            
20017999  ti_sysbios_knl_Clock_workFunc__E                                   
20017a05  ti_sysbios_heaps_HeapMem_Module_GateProxy_enter__E                 
20017a09  ti_sysbios_knl_Swi_restoreHwi__E                                   
20017a75  ti_sysbios_heaps_HeapMem_Module_GateProxy_leave__E                 
20017a79  ti_sysbios_knl_Task_exit__E                                        
20017ae5  xdc_runtime_Error_print__E                                         
20017b51  xdc_runtime_Memory_alloc__E                                        
20017c91  PRCMHibernateWakeUpGPIOSelect                                      
20017cf9  _sl_GetCreateFsMode                                                
20017d61  aws_iot_mqtt_disconnect                                            
20017dc9  __TI_writemsg                                                      
20017df7  C$$IO$$                                                            
20017dfb  __TI_readmsg                                                       
20017e31  spi_Read                                                           
20017e99  spi_Write                                                          
20017f69  HTTPCli_sendField                                                  
20017fd1  _Dunscale                                                          
20018037  xdc_runtime_Core_deleteObject__I                                   
2001809d  GPIO_hwiIntFxn                                                     
20018101  _sl_HandleAsync_DnsGetHostByName                                   
20018165  aws_iot_mqtt_internal_decode_remaining_length_from_buffer          
200181c9  fseek                                                              
2001822d  ti_sysbios_knl_Clock_TimerProxy_getMaxTicks__E                     
20018231  ti_sysbios_family_arm_m3_Hwi_dispatchC__I                          
20018295  ti_sysbios_knl_Mailbox_create                                      
200182f9  uDMAChannelAttributeDisable                                        
2001835d  HwiP_create                                                        
200183bf  __aeabi_cfcmpeq                                                    
200183bf  __aeabi_cfcmple                                                    
2001841f  __aeabi_cfrcmple                                                   
20018481  _sl_HandleAsync_DnsGetHostByService                                
200184e1  _sl_HandleAsync_InitComplete                                       
20018541  _sl_HandleAsync_PingResponse                                       
200185a1  sprintf                                                            
20018601  ti_sysbios_knl_Task_schedule__I                                    
2001871d  ti_sysbios_knl_Clock_TimerProxy_setPeriodMicroSecs__E              
20018721  ti_sysbios_knl_Swi_run__I                                          
2001877d  ti_sysbios_knl_Clock_TimerProxy_start__E                           
20018781  ti_sysbios_knl_Swi_schedule__I                                     
200187dd  ti_sysbios_knl_Clock_TimerProxy_stop__E                            
200187e1  ti_sysbios_knl_Task_Module_startup__E                              
2001883d  ti_sysbios_knl_Task_create                                         
20018899  ti_sysbios_knl_Task_startCore__E                                   
200188f5  xdc_runtime_Text_putLab__E                                         
20018951  ClockP_create                                                      
200189ab  SPICC3200DMA_close                                                 
20018a05  aws_iot_mqtt_attempt_reconnect                                     
20018a5f  iot_tls_write                                                      
20018ab9  PRCMPeripheralReset                                                
20018b11  Power_init                                                         
20018b69  SemaphoreP_create                                                  
20018bc1  _SlDrvCmdSend                                                      
20018c71  _sl_NetAppSendTokenValue                                           
20018cc9  aws_iot_is_autoreconnect_enabled                                   
20018d21  setTime                                                            
20018d79  sl_Bind                                                            
20018dd1  ti_sysbios_family_arm_m3_Hwi_construct                             
20018e29  ltoa                                                               
20018e81  CC3200_LAUNCHXL_initDMA                                            
20018ed5  SNTP_setServers                                                    
20018f29  UARTCC3200_writeCancel                                             
20018fd1  sl_FsOpen                                                          
20019025  sl_SetSockOpt                                                      
20019079  ti_sysbios_family_arm_m3_Timer_start__E                            
200190cd  xdc_runtime_Assert_raise__I                                        
20019121  CC3X00_NWP_enablePreamble                                          
20019171  GPIO_write                                                         
200191c1  _sl_HandleAsync_Connect                                            
20019211  __TI_tvaltostr                                                     
20019261  sl_DevSet                                                          
200192b1  sl_NetCfgSet                                                       
20019301  sstartNTP                                                          
20019351  ti_sysbios_family_arm_m3_Hwi_Module_startup__E                     
200193a1  ti_sysbios_knl_Clock_Instance_init__E                              
200193f1  xdc_runtime_Startup_exec__E                                        
20019491  GPIO_setCallback                                                   
200194dd  SPIIntDisable                                                      
20019529  SPIIntEnable                                                       
20019575  _SlDrvDeviceEventHandler                                           
200195c1  _sl_HandleAsync_Accept                                             
20019659  atoi                                                               
200196a5  atol                                                               
200196f1  copy_in                                                            
2001973d  localtime                                                          
20019789  ti_sysbios_family_arm_m3_TaskSupport_buildTaskStack                
200197d5  ti_sysbios_knl_Clock_destruct                                      
200197d9  ti_sysbios_heaps_HeapMem_getStats__E                               
20019825  ti_sysbios_knl_Event_delete                                        
20019829  ti_sysbios_knl_Swi_runLoop__I                                      
20019875  ti_sysbios_knl_Mailbox_delete                                      
20019879  ti_sysbios_knl_Task_allBlockedFunction__I                          
200198c5  uDMAChannelAssign                                                  
20019911  FlashDisable                                                       
20019959  PRCMHibernateWakeupSourceEnable                                    
200199a1  PinConfigGet                                                       
200199e9  SPIIntClear                                                        
20019a31  _SlRemoveFromList                                                  
20019b09  __aeabi_d2iz                                                       
20019b51  __aeabi_d2f                                                        
20019b99  sl_Recv                                                            
20019be1  ti_sysbios_family_arm_m3_Hwi_disableInterrupt__E                   
20019be1  ti_sysbios_hal_Hwi_HwiProxy_disableInterrupt__E                    
20019c29  ti_sysbios_family_arm_m3_Hwi_enableInterrupt__E                    
20019c29  ti_sysbios_hal_Hwi_HwiProxy_enableInterrupt__E                     
20019c71  ti_sysbios_family_arm_m3_Hwi_excReserved__I                        
20019cb9  ti_sysbios_family_arm_m3_Hwi_initStacks__E                         
20019d01  ti_sysbios_family_arm_m3_Timer_initDevice__I                       
20019d49  ti_sysbios_family_arm_m3_Timer_setPeriod__E                        
20019d91  ti_sysbios_knl_Mailbox_Module_startup__E                           
20019dd9  RingBuf_put                                                        
20019e1f  aws_iot_mqtt_internal_write_len_to_buffer                          
20019e65  aws_iot_mqtt_internal_write_uint_16                                
20019eab  ldexp                                                              
20019ef1  xdc_runtime_Core_assignParams__I                                   
20019f39  PRCMLPDSEnter                                                      
20019f7d  PowerCC3200_enterLPDS                                              
2001a049  _SlAsyncEventGenericHandler                                        
2001a08d  _c_int00                                                           
2001a0d1  C$$EXIT                                                            
2001a0d5  abort                                                              
2001a0d5  xdc_runtime_System_abortStd__E                                     
2001a0dd  exit                                                               
2001a0dd  xdc_runtime_System_exitStd__E                                      
2001a115  sl_FsDel                                                           
2001a159  sl_WlanPolicySet                                                   
2001a19d  ti_sysbios_knl_Queue_destruct                                      
2001a1a1  ti_sysbios_family_arm_cc32xx_Seconds_set__E                        
2001a1a1  ti_sysbios_hal_Seconds_SecondsProxy_set__E                         
2001a1e5  ti_sysbios_knl_Semaphore_delete                                    
2001a1e9  ti_sysbios_family_arm_m3_Hwi_getStackInfo__E                       
2001a1e9  ti_sysbios_hal_Hwi_HwiProxy_getStackInfo__E                        
2001a22d  ti_sysbios_knl_Semaphore_destruct                                  
2001a231  ti_sysbios_knl_Swi_post__E                                         
2001a275  xdc_runtime_Error_setX__E                                          
2001a2b9  xdc_runtime_Text_xprintf__I                                        
2001a2fd  PowerCC3200_resumeLPDS                                             
2001a33f  UARTCC3200_writePolling                                            
2001a381  aws_iot_mqtt_internal_get_final_packet_length_from_remaining_length
2001a3c3  aws_iot_mqtt_internal_read_uint16_t                                
2001a405  aws_iot_mqtt_set_client_state                                      
2001a489  GPIO_enableInt                                                     
2001a4c9  PinModeSet                                                         
2001a509  Power_setDependency                                                
2001a549  RingBuf_get                                                        
2001a589  UARTCC3200_read                                                    
2001a5c9  _SlDrvRxIrqHandler                                                 
2001a609  _sl_HandleAsync_Select                                             
2001a689  iot_tls_disconnect                                                 
2001a709  osi_LockObjLock                                                    
2001a749  osi_SyncObjCreate                                                  
2001a789  osi_SyncObjWait                                                    
2001a7c9  signal                                                             
2001a809  strtok                                                             
2001a849  __aeabi_uidiv                                                      
2001a849  __aeabi_uidivmod                                                   
2001a889  ti_sysbios_heaps_HeapMem_Instance_init__E                          
2001a945  realloc                                                            
2001a985  PRCMPeripheralClkEnable                                            
2001a9c1  PRCMSlowClkCtrFastGet                                              
2001a9fd  PinDirModeSet                                                      
2001aa39  WiFi_open                                                          
2001aa75  _sl_HandleAsync_Stop                                               
2001aaed  spi_Open                                                           
2001ab29  ti_sysbios_family_arm_m3_Hwi_excSvCall__I                          
2001ab65  ti_sysbios_knl_Task_delete                                         
2001ab69  ti_sysbios_family_arm_m3_Timer_setPeriodMicroSecs__E               
2001aba5  xdc_runtime_Error_getSite__E                                       
2001aba9  ti_sysbios_heaps_HeapMem_init__I                                   
2001abe5  xdc_runtime_System_Module_GateProxy_enter__E                       
2001abe9  ti_sysbios_knl_Clock_getTicksUntilTimeout__E                       
2001abe9  ti_sysbios_knl_Clock_walkQueuePeriodic__E                          
2001ac25  xdc_runtime_System_Module_GateProxy_leave__E                       
2001ac29  ti_sysbios_knl_Swi_restore__E                                      
2001ac65  uDMAChannelControlSet                                              
2001aca1  iot_tls_destroy                                                    
2001acdb  ADCChannelEnable                                                   
2001ad13  HTTPCli_sendRequestBody                                            
2001ad4d  PRCMIntEnable                                                      
2001ad85  PowerCC3200_initPolicy                                             
2001adbd  SPI_init                                                           
2001adf5  UART_init                                                          
2001ae2d  WiFi_init                                                          
2001ae65  aws_iot_mqtt_internal_write_utf8_string                            
2001ae9d  left_ms                                                            
2001aed5  osi_LockObjCreate                                                  
2001af0d  __aeabi_f2d                                                        
2001af45  __aeabi_f2iz                                                       
2001af7d  __aeabi_i2f                                                        
2001afb5  sl_Htonl                                                           
2001b05d  xdc_runtime_System_aprintf_va__F                                   
2001b061  ti_sysbios_family_arm_cc32xx_Seconds_get__E                        
2001b061  ti_sysbios_hal_Seconds_SecondsProxy_get__E                         
2001b099  ti_sysbios_family_arm_m3_Hwi_excNoIsr__I                           
2001b0d1  ti_sysbios_knl_Task_processVitalTaskFlag__I                        
2001b109  xdc_runtime_System_atexit__E                                       
2001b141  GPIODirModeSet                                                     
2001b177  HTTPCli_readRawResponseBody                                        
2001b1ad  UARTCC3200_readCancel                                              
2001b1e5  CC3X00_NWP_disable                                                 
2001b219  PRCMPeripheralStatusGet                                            
2001b24d  PRCMSRAMRetentionEnable                                            
2001b281  Power_releaseDependency                                            
2001b2b5  SPIFIFOLevelSet                                                    
2001b2e9  UARTUtils_deviceread                                               
2001b31d  UARTUtils_devicewrite                                              
2001b351  _SlDrvBasicCmd                                                     
2001b385  _SlDrvProtectAsyncRespSetting                                      
2001b455  feraiseexcept                                                      
2001b489  strstr                                                             
2001b4f1  sl_Htons                                                           
2001b525  xdc_runtime_System_printf_va__F                                    
2001b529  ti_sysbios_family_arm_m3_Hwi_Instance_finalize__E                  
2001b561  ti_sysbios_family_arm_m3_Hwi_excNmi__I                             
2001b599  ti_sysbios_family_arm_m3_Timer_periodicStub__I                     
2001b5d1  ti_sysbios_hal_Hwi_checkStack                                      
2001b605  ti_sysbios_knl_Clock_construct                                     
2001b639  ti_sysbios_knl_Semaphore_create                                    
2001b66d  xdc_runtime_Core_assignLabel__I                                    
2001b6a1  xdc_runtime_Text_printVisFxn__I                                    
2001b6d5  HTTPCli_disconnect                                                 
2001b707  Ssock_recv                                                         
2001b7a1  ti_sysbios_hal_Hwi_initStack                                       
2001b7d3  PinTypeGPIO                                                        
2001b805  Power_releaseConstraint                                            
2001b835  Power_setConstraint                                                
2001b865  SPI_open                                                           
2001b895  SimpleLinkWlanEventHandler                                         
2001b8c5  UARTDisable                                                        
2001b8f5  UART_open                                                          
2001b955  registerInterruptHandler                                           
2001b985  strcasecmp                                                         
2001b9b5  strncpy                                                            
2001b9e5  _Feraise                                                           
2001ba15  sl_Socket                                                          
2001ba45  ti_sysbios_BIOS_atExitFunc__I                                      
2001ba79  ti_sysbios_family_arm_m3_TaskSupport_start__E                      
2001ba79  ti_sysbios_knl_Task_SupportProxy_start__E                          
2001baa9  ti_sysbios_gates_GateHwi_Object__create__S                         
2001bad9  ti_sysbios_gates_GateMutex_Object__create__S                       
2001bb09  ti_sysbios_gates_GateMutex_enter__E                                
2001bb39  ti_sysbios_heaps_HeapMem_Object__create__S                         
2001bb69  ti_sysbios_knl_Event_create                                        
2001bb99  ti_sysbios_knl_Event_pendTimeout__I                                
2001bbc9  ti_sysbios_knl_Mailbox_postInit__I                                 
2001bbf9  ti_sysbios_knl_Semaphore_construct                                 
2001bc29  ti_sysbios_knl_Semaphore_pendTimeout__I                            
2001bc59  ti_sysbios_knl_Task_unblockI__E                                    
2001bc89  xdc_runtime_System_processAtExit__E                                
2001bcb9  UARTUtils_deviceopen                                               
2001bce7  ff_memalloc                                                        
2001bce7  malloc                                                             
2001bd15  __aeabi_i2d                                                        
2001bd43  raise                                                              
2001bd71  CC3X00_NWP_enable                                                  
2001bd9d  PRCMLPDSIntervalSet                                                
2001bdc9  PRCMSysResetCauseGet                                               
2001bdf5  SNTP_forceTimeSync                                                 
2001be79  _nassert                                                           
2001be7b  _abort_msg                                                         
2001be91  _assert                                                            
2001bf29  ti_sysbios_knl_Clock_doTick__I                                     
2001bf55  ti_sysbios_knl_Queue_construct                                     
2001bf81  ti_sysbios_knl_Task_restore__E                                     
2001bfd9  xdc_runtime_Text_cordText__E                                       
2001c005  SPIDataGetNonBlocking                                              
2001c02f  _sl_BuildAddress                                                   
2001c059  strspn                                                             
2001c083  _Dclass                                                            
2001c0d7  xdc_runtime_System_putchar__I                                      
2001c101  PRCMLPDSWakeupSourceEnable                                         
2001c129  PRCMPeripheralClkDisable                                           
2001c151  Power_registerNotify                                               
2001c179  Ssock_recvall                                                      
2001c1f1  strncat                                                            
2001c219  ti_sysbios_knl_Clock_addI__E                                       
2001c241  ti_sysbios_knl_Swi_Module_startup__E                               
2001c269  uDMAChannelIsEnabled                                               
2001c291  HTTPCli_destruct                                                   
2001c2b7  HTTPCli_setRequestFields                                           
2001c2dd  HTTPCli_setResponseFields                                          
2001c303  List_put                                                           
2001c329  aws_iot_mqtt_get_next_packet_id                                    
2001c3c1  strncmp                                                            
2001c3e7  xdc_runtime_System_avprintf__E                                     
2001c40d  PRCMLPDSWakeUpGPIOSelect                                           
2001c431  RebootMCU                                                          
2001c455  SimpleLinkNetAppEventHandler                                       
2001c479  TLS_delete                                                         
2001c49d  UARTCharPutNonBlocking                                             
2001c4c1  UARTEnable                                                         
2001c4e5  UARTUtils_systemAbort                                              
2001c509  osi_Spawn                                                          
2001c52d  strcspn                                                            
2001c551  __aeabi_ui2f                                                       
2001c575  sl_Close                                                           
2001c599  sl_WlanProfileDel                                                  
2001c5bd  sl_WlanSetMode                                                     
2001c5e1  ti_sysbios_BIOS_registerRTSLock__I                                 
2001c605  ti_sysbios_BIOS_removeRTSLock__I                                   
2001c629  ti_sysbios_BIOS_startFunc__I                                       
2001c651  ti_sysbios_family_arm_m3_Timer_Module_startup__E                   
2001c679  ti_sysbios_family_arm_m3_Timer_postInit__I                         
2001c6a1  ti_sysbios_family_arm_m3_Timer_startup__E                          
2001c6a1  ti_sysbios_knl_Clock_TimerProxy_startup__E                         
2001c6c5  ti_sysbios_BIOS_RtsGateProxy_Object__delete__S                     
2001c6c5  ti_sysbios_gates_GateMutex_Object__delete__S                       
2001c6c5  ti_sysbios_heaps_HeapMem_Module_GateProxy_Object__delete__S        
2001c6e9  ti_sysbios_knl_Clock_Module_startup__E                             
2001c711  ti_sysbios_knl_Clock_start__E                                      
2001c739  ti_sysbios_knl_Semaphore_Instance_init__E                          
2001c75d  ti_sysbios_knl_Semaphore_Object__delete__S                         
2001c781  ti_sysbios_knl_Task_restoreHwi__E                                  
2001c7a5  xdc_runtime_System_vprintf__E                                      
2001c7c9  ADCTimerConfig                                                     
2001c7eb  GPIOIntStatus                                                      
2001c80d  SPIReset                                                           
2001c82f  SPIWordCountSet                                                    
2001c851  aws_iot_mqtt_autoreconnect_set_status                              
2001c873  frexp                                                              
2001c895  GPIOPinWrite                                                       
2001c8b5  PRCMLPDSRestoreInfoSet                                             
2001c8d5  Power_idleFunc                                                     
2001c8f5  Power_unregisterNotify                                             
2001c915  SPIDataGet                                                         
2001c935  UARTUtils_systemPutch                                              
2001c955  aws_iot_mqtt_internal_read_char                                    
2001c975  aws_iot_mqtt_internal_write_char                                   
2001c9d5  has_timer_expired                                                  
2001c9f5  memchr                                                             
2001ca55  ti_sysbios_BIOS_rtsLock__I                                         
2001ca79  ti_sysbios_family_arm_m3_Hwi_clearInterrupt__E                     
2001ca79  ti_sysbios_hal_Hwi_HwiProxy_clearInterrupt__E                      
2001ca99  ti_sysbios_family_arm_m3_Hwi_excHandlerAsm__I                      
2001cab9  ti_sysbios_family_arm_m3_Hwi_excHandler__I                         
2001cad9  ti_sysbios_gates_GateHwi_Object__delete__S                         
2001cad9  xdc_runtime_Main_Module_GateProxy_Object__delete__S                
2001cad9  xdc_runtime_System_Module_GateProxy_Object__delete__S              
2001caf9  ti_sysbios_heaps_HeapMem_Object__delete__S                         
2001caf9  xdc_runtime_Memory_HeapProxy_Object__delete__S                     
2001cb19  ti_sysbios_knl_Clock_Object__destruct__S                           
2001cb39  ti_sysbios_knl_Event_Object__delete__S                             
2001cb59  ti_sysbios_knl_Idle_run__E                                         
2001cb79  ti_sysbios_knl_Mailbox_Object__delete__S                           
2001cb99  ti_sysbios_knl_Semaphore_Object__destruct__S                       
2001cbb9  ti_sysbios_knl_Task_Object__delete__S                              
2001cbd9  xdc_runtime_Registry_findById__E                                   
2001cbf9  SPIDataPut                                                         
2001cc17  UARTCharPut                                                        
2001cc35  UARTIntStatus                                                      
2001cc53  WiFiCC3200_close                                                   
2001cc8f  jsmn_init                                                          
2001ccad  strcat                                                             
2001cccb  ti_sysbios_BIOS_errorRaiseHook__I                                  
2001cce9  ti_sysbios_family_xxx_Hwi_switchAndRunFunc                         
2001cd25  ADCFIFOLvlGet                                                      
2001cd41  HTTPCli_getResponseStatus                                          
2001cd5d  SPICC3200DMA_init                                                  
2001cd79  Ssock_delete                                                       
2001cd95  Ssock_destruct                                                     
2001cdb1  UARTCharGetNonBlocking                                             
2001cdcd  UARTFlowControlSet                                                 
2001cde9  _SlDrvProtectionObjLockWaitForever                                 
2001ce05  _sl_TruncatePayloadByProtocol                                      
2001ce75  memccpy                                                            
2001ce91  ti_sysbios_family_arm_m3_Hwi_Object__destruct__S                   
2001ceb1  ti_sysbios_family_arm_m3_Timer_stop__E                             
2001ced1  ti_sysbios_gates_GateMutex_Instance_init__E                        
2001cef1  ti_sysbios_knl_Clock_Instance_finalize__E                          
2001cf0d  ti_sysbios_knl_Queue_Object__destruct__S                           
2001cf29  ti_sysbios_knl_Queue_get__E                                        
2001cf49  ti_sysbios_knl_Queue_put__E                                        
2001cf69  ti_sysbios_knl_Task_enter__I                                       
2001cf85  uDMAChannelEnable                                                  
2001cfbd  xdc_runtime_Error_raiseX__E                                        
2001cfd9  xdc_runtime_Memory_valloc__E                                       
2001cff5  xdc_runtime_System_abort__E                                        
2001d011  CopyPingResultsToReport                                            
2001d02b  GPIOIntEnable                                                      
2001d045  List_remove                                                        
2001d05f  PinTypeUART                                                        
2001d079  SPIDmaDisable                                                      
2001d093  SPIDmaEnable                                                       
2001d0ad  SPIFIFODisable                                                     
2001d0c7  SPIFIFOEnable                                                      
2001d115  ti_sysbios_family_arm_m3_Hwi_pendSV__I                             
2001d12d  ti_sysbios_family_arm_m3_Hwi_return                                
2001d12f  xdc_runtime_System_aprintf__E                                      
2001d149  xdc_runtime_System_printf__E                                       
2001d17d  ADCFIFORead                                                        
2001d195  GPIOPinRead                                                        
2001d1ad  HTTPCli_construct                                                  
2001d1c5  NetMACAddressGet                                                   
2001d1dd  PRCMHibernateEnter                                                 
2001d1f5  SPICSDisable                                                       
2001d20d  SPICSEnable                                                        
2001d225  SPIDisable                                                         
2001d23d  SPIEnable                                                          
2001d255  Ssock_create                                                       
2001d26d  UARTBusy                                                           
2001d285  UARTFIFOLevelSet                                                   
2001d29d  UARTIntDisable                                                     
2001d2b5  UARTIntEnable                                                      
2001d2cd  UARTUtils_deviceclose                                              
2001d2e5  UART_Params_init                                                   
2001d2fd  VDeleteSimpleLinkSpawnTask                                         
2001d315  WiFiCC3200_init                                                    
2001d32d  _SlDrvProtectionObjUnLock                                          
2001d345  ff_memfree                                                         
2001d345  free                                                               
2001d345  mem_Free                                                           
2001d35d  _args_main                                                         
2001d375  __aeabi_lmul                                                       
2001d38d  strcmp                                                             
2001d3a5  spi_Close                                                          
2001d3bd  ti_sysbios_BIOS_rtsUnlock__I                                       
2001d3d5  ti_sysbios_family_arm_m3_Hwi_Handle__label__S                      
2001d3d5  ti_sysbios_hal_Hwi_HwiProxy_Handle__label__S                       
2001d3ed  ti_sysbios_family_arm_m3_Hwi_Module__startupDone__F                
2001d3ed  ti_sysbios_family_arm_m3_Hwi_Module__startupDone__S                
2001d3ed  ti_sysbios_hal_Hwi_HwiProxy_Module__startupDone__S                 
2001d405  ti_sysbios_family_arm_m3_Timer_Module__startupDone__F              
2001d405  ti_sysbios_family_arm_m3_Timer_Module__startupDone__S              
2001d405  ti_sysbios_knl_Clock_TimerProxy_Module__startupDone__S             
2001d41d  ti_sysbios_gates_GateHwi_Handle__label__S                          
2001d41d  xdc_runtime_Main_Module_GateProxy_Handle__label__S                 
2001d41d  xdc_runtime_System_Module_GateProxy_Handle__label__S               
2001d435  ti_sysbios_BIOS_RtsGateProxy_Handle__label__S                      
2001d435  ti_sysbios_gates_GateMutex_Handle__label__S                        
2001d435  ti_sysbios_heaps_HeapMem_Module_GateProxy_Handle__label__S         
2001d451  ti_sysbios_gates_GateMutex_leave__E                                
2001d469  ti_sysbios_heaps_HeapMem_Handle__label__S                          
2001d469  xdc_runtime_Memory_HeapProxy_Handle__label__S                      
2001d481  ti_sysbios_knl_Swi_Handle__label__S                                
2001d499  ti_sysbios_knl_Task_Handle__label__S                               
2001d4b1  ti_sysbios_knl_Task_sleepTimeout__I                                
2001d4c9  time                                                               
2001d4e1  xdc_runtime_Error_check__E                                         
2001d4f9  xdc_runtime_System_exit__E                                         
2001d511  xdc_runtime_Text_ropeText__E                                       
2001d529  ADCTimerEnable                                                     
2001d53f  ClockP_delete                                                      
2001d555  HwiP_delete                                                        
2001d56b  PRCMHIBRegRead                                                     
2001d581  PRCMHIBRegWrite                                                    
2001d597  SemaphoreP_delete                                                  
2001d5ad  UARTCharGet                                                        
2001d5c3  _sl_Strlen                                                         
2001d5d9  aws_iot_mqtt_get_client_state                                      
2001d5ef  init_timer                                                         
2001d605  strchr                                                             
2001d631  ti_sysbios_BIOS_exitFunc__I                                        
2001d673  ADCEnable                                                          
2001d687  CPUcpsid                                                           
2001d69b  CPUcpsie                                                           
2001d6af  GPIOIntClear                                                       
2001d6c3  PinTypeADC                                                         
2001d6d9  SPI_Params_init                                                    
2001d6ed  Ssock_construct                                                    
2001d701  UARTUtils_systemReady                                              
2001d729  osi_SyncObjClear                                                   
2001d73d  _register_unlock                                                   
2001d743  _register_lock                                                     
2001d74b  _nop                                                               
2001d751  strcpy                                                             
2001d765  strlen                                                             
2001d779  ti_sysbios_family_arm_m3_Hwi_Object__get__S                        
2001d791  ti_sysbios_family_arm_m3_Hwi_switchFromBootStack__E                
2001d791  ti_sysbios_hal_Hwi_HwiProxy_switchFromBootStack__E                 
2001d7a5  ti_sysbios_heaps_HeapMem_Object__get__S                            
2001d7b9  ti_sysbios_knl_Clock_tickReconfig__E                               
2001d7d1  ti_sysbios_knl_Event_Instance_init__E                              
2001d7e5  ti_sysbios_knl_Swi_Object__get__S                                  
2001d7f9  timeUpdateHook                                                     
2001d80d  uDMAControlBaseSet                                                 
2001d821  ClockP_start                                                       
2001d821  ClockP_startFromISR                                                
2001d833  RingBuf_construct                                                  
2001d845  SemaphoreP_pend                                                    
2001d857  UARTIntClear                                                       
2001d869  UARTRxErrorGet                                                     
2001d87b  UARTUtils_devicelseek                                              
2001d88d  _SlDrvObjLockWaitForever                                           
2001d89f  _SlDrvSyncObjWaitForever                                           
2001d8b1  ti_sysbios_hal_Hwi_Module_startup__E                               
2001d8c3  xdc_runtime_Startup_exec__I                                        
2001d8d5  CC3200_LAUNCHXL_initGeneral                                        
2001d8e5  CC3200_LAUNCHXL_initWiFi                                           
2001d8f5  CC3X00_NWP_maskInterrupt                                           
2001d905  SL_FD_SET                                                          
2001d915  UARTRxErrorClear                                                   
2001d925  UARTUtils_devicerename                                             
2001d935  WiFi_Params_init                                                   
2001d945  _sl_GetStartResponseConvert                                        
2001d9b9  ti_sysbios_BIOS_getCpuFreq__E                                      
2001d9c9  ti_sysbios_BIOS_setThreadType__E                                   
2001d9d9  osi_start                                                          
2001d9d9  ti_sysbios_BIOS_start__E                                           
2001d9e9  ti_sysbios_family_arm_m3_TaskSupport_glue                          
2001d9f9  ti_sysbios_family_arm_m3_TaskSupport_swap__E                       
2001d9f9  ti_sysbios_knl_Task_SupportProxy_swap__E                           
2001da01  ti_sysbios_knl_Task_swapReturn                                     
2001da09  ti_sysbios_gates_GateMutex_Instance_finalize__E                    
2001da19  ti_sysbios_knl_Mailbox_Object__get__S                              
2001da29  ti_sysbios_knl_Semaphore_Instance_finalize__E                      
2001da39  ti_sysbios_knl_Swi_disable__E                                      
2001da49  ti_sysbios_knl_Task_Object__get__S                                 
2001da59  osi_TaskDisable                                                    
2001da59  ti_sysbios_knl_Task_disable__E                                     
2001da69  xdc_runtime_Gate_leaveSystem__E                                    
2001da79  xdc_runtime_Memory_free__E                                         
2001da89  xdc_runtime_SysCallback_abort__E                                   
2001da89  xdc_runtime_System_SupportProxy_abort__E                           
2001da99  xdc_runtime_SysCallback_exit__E                                    
2001da99  xdc_runtime_System_SupportProxy_exit__E                            
2001daa9  xdc_runtime_SysCallback_flush__E                                   
2001daa9  xdc_runtime_System_SupportProxy_flush__E                           
2001dab9  xdc_runtime_SysCallback_putch__E                                   
2001dab9  xdc_runtime_System_SupportProxy_putch__E                           
2001dac9  xdc_runtime_SysCallback_ready__E                                   
2001dac9  xdc_runtime_System_SupportProxy_ready__E                           
2001dad9  xdc_runtime_System_vsnprintf__E                                    
2001dae9  HwiP_Params_init                                                   
2001daf7  UARTUtils_deviceunlink                                             
2001db05  _SlDrvObjUnLock                                                    
2001db13  _SlDrvSyncObjSignal                                                
2001db21  __TI_decompress_none                                               
2001db31  ti_sysbios_knl_Idle_loop__E                                        
2001db41  ti_sysbios_knl_Queue_empty__E                                      
2001db51  CC3X00_NWP_unMaskInterrupt                                         
2001db5d  CPUwfi                                                             
2001db69  ClockP_getSystemTickPeriod                                         
2001db75  NetWiFi_isConnected                                                
2001db81  Power_getConstraintMask                                            
2001db8d  Power_getDependencyCount                                           
2001db99  RingBuf_peek                                                       
2001dba5  SimpleLinkHttpServerCallback                                       
2001dbb1  UARTCC3200_init                                                    
2001dbbd  __TI_zero_init                                                     
2001dbed  iot_tls_is_connected                                               
2001dbf9  osi_LockObjUnlock                                                  
2001dc05  osi_SyncObjSignal                                                  
2001dc11  osi_SyncObjSignalFromISR                                           
2001dc35  ctime                                                              
2001dc41  ti_sysbios_family_arm_m3_Hwi_Params__init__S                       
2001dc41  ti_sysbios_hal_Hwi_HwiProxy_Params__init__S                        
2001dc51  ti_sysbios_family_arm_m3_Hwi_disableFxn__E                         
2001dc51  ti_sysbios_hal_Hwi_HwiProxy_disable__E                             
2001dc61  ti_sysbios_family_arm_m3_TaskSupport_checkStack__E                 
2001dc61  ti_sysbios_knl_Task_SupportProxy_checkStack__E                     
2001dc71  ti_sysbios_family_arm_m3_TaskSupport_getStackAlignment__E          
2001dc71  ti_sysbios_knl_Task_SupportProxy_getStackAlignment__E              
2001dc81  ti_sysbios_gates_GateHwi_enter__E                                  
2001dc8d  ti_sysbios_knl_Clock_Params__init__S                               
2001dc99  ClockP_getSystemTicks                                              
2001dc99  ti_sysbios_knl_Clock_getTicks__E                                   
2001dca9  ti_sysbios_knl_Clock_setTicks__E                                   
2001dcb9  ti_sysbios_knl_Clock_tickStart__E                                  
2001dcc9  ti_sysbios_knl_Clock_tickStop__E                                   
2001dcd5  ti_sysbios_knl_Queue_Object__get__S                                
2001dce1  ti_sysbios_knl_Semaphore_Params__init__S                           
2001dced  ti_sysbios_knl_Task_Params__init__S                                
2001dcf9  uDMAControlBaseGet                                                 
2001dd05  uDMAEnable                                                         
2001dd11  uDMAErrorStatusClear                                               
2001dd1d  uDMAIntStatus                                                      
2001dd29  xdc_runtime_Error_init__E                                          
2001dd35  xdc_runtime_Gate_enterSystem__E                                    
2001dd41  xdc_runtime_Memory_calloc__E                                       
2001dd4d  xdc_runtime_Memory_getMaxDefaultTypeAlign__E                       
2001dd59  ClockP_stop                                                        
2001dd59  ClockP_stopFromISR                                                 
2001dd63  List_empty                                                         
2001dd6d  SPI_close                                                          
2001dd77  SPI_transfer                                                       
2001dd81  SemaphoreP_post                                                    
2001dd81  SemaphoreP_postFromClock                                           
2001dd81  SemaphoreP_postFromISR                                             
2001dd8b  SimpleLinkGeneralEventHandler                                      
2001dd95  SimpleLinkSockEventHandler                                         
2001dd9f  UART_close                                                         
2001dda9  UART_read                                                          
2001ddb3  UART_write                                                         
2001ddbd  UART_writePolling                                                  
2001ddc7  WiFi_close                                                         
2001dddb  osi_LockObjDelete                                                  
2001dde5  osi_SyncObjDelete                                                  
2001ddef  xdc_runtime_Memory_HeapProxy_alloc__E                              
2001ddf9  xdc_runtime_Memory_HeapProxy_free__E                               
2001de03  CC3200_LAUNCHXL_initGPIO                                           
2001de0b  CC3200_LAUNCHXL_initUART                                           
2001de13  ClockP_Params_init                                                 
2001de1b  PRCMSleepEnter                                                     
2001de23  SemaphoreP_Params_init                                             
2001de2b  _SlDrvMemZero                                                      
2001de33  getTime                                                            
2001de43  sl_WlanDisconnect                                                  
2001de4b  SL_FD_ZERO                                                         
2001de51  ti_sysbios_family_arm_m3_Hwi_doSwiRestore__I                       
2001de59  ti_sysbios_family_arm_m3_Hwi_startup__E                            
2001de59  ti_sysbios_hal_Hwi_HwiProxy_startup__E                             
2001de71  xdc_runtime_Text_visitRope__I                                      
2001de79  SPICC3200DMA_control                                               
2001de7f  UtilsDelay                                                         
2001de85  WiFiCC3200_control                                                 
2001de8b  _SlDrvResetCmdExt                                                  
2001de91  __xdc__init                                                        
2001de97  __TI_decompress_rle24                                              
2001dea1  ti_sysbios_family_arm_m3_Hwi_doTaskRestore__I                      
2001dea9  HwiP_restore                                                       
2001dea9  ti_sysbios_family_arm_m3_Hwi_restoreFxn__E                         
2001dea9  ti_sysbios_hal_Hwi_HwiProxy_restore__E                             
2001deb1  ti_sysbios_gates_GateHwi_leave__E                                  
2001deb9  ti_sysbios_heaps_HeapMem_isBlocking__E                             
2001dec1  ti_sysbios_knl_Clock_stop__E                                       
2001dec9  ti_sysbios_knl_Queue_Instance_init__E                              
2001ded1  ti_sysbios_knl_Swi_startup__E                                      
2001ded7  xdc_runtime_System_Module_startup__E                               
2001dee1  ti_sysbios_family_arm_m3_Timer_getMaxTicks__E                      
2001dee9  ti_sysbios_gates_GateHwi_query__E                                  
2001dee9  xdc_runtime_Main_Module_GateProxy_query__E                         
2001dee9  xdc_runtime_System_Module_GateProxy_query__E                       
2001def1  ti_sysbios_BIOS_RtsGateProxy_query__E                              
2001def1  ti_sysbios_gates_GateMutex_query__E                                
2001def1  ti_sysbios_heaps_HeapMem_Module_GateProxy_query__E                 
2001def9  ti_sysbios_knl_Clock_setTimeout__E                                 
2001df01  ti_sysbios_knl_Task_startup__E                                     
2001df09  ti_sysbios_gates_GateHwi_Instance_init__E                          
2001df11  ti_sysbios_knl_Clock_logTick__E                                    
2001e000  ti_sysbios_heaps_HeapMem_Instance_State_0_buf__A                   
20026000  ti_sysbios_knl_Task_Instance_State_0_stack__A                      
20026800  g_buff                                                             
20027358  g_OtaCheckUpdateResponse                                           
200277a4  g_OtaApp                                                           
200277f0  HOST_NAME                                                          
20027c00  g_OtaFileMetadata                                                  
20027fd8  ti_sysbios_family_arm_m3_Hwi_dispatchTable                         
20028724  philipsbulbstatus                                                  
200288b4  PowerCC3200_contextSave                                            
200289e0  __CIOBUF_                                                          
20028b00  uartCC3200Objects                                                  
20028c08  __TI_tmpnams                                                       
20028ca8  belkin_uri                                                         
20028d40  SPICC3200DMAObjects                                                
20028db8  g_CdnClient                                                        
20028e2c  dexterpistring                                                     
20028e90  philips_request_uri                                                
20028ef4  timeslap                                                           
20028f58  g_OtaApp_statistics                                                
20028fa4  uartCC3200RingBuffer                                               
20028fe4  PUT_DATA                                                           
20029018  wiFiCC3200Objects                                                  
20029048  philips_id                                                         
20029074  Power1                                                             
2002909c  Power2                                                             
200290c4  Power3                                                             
200290ec  Power4                                                             
20029114  g_OtaClient                                                        
20029190  DeviceID                                                           
200291a4  belkinstatus                                                       
200291b8  g_FlcSflashCb                                                      
200291e0  ucVendorStr                                                        
200291f4  ntpServers                                                         
20029204  philips_uri                                                        
20029220  userid                                                             
2002922c  OptionLen                                                          
20029238  g_LogClient                                                        
20029250  SimpleLinkSpawnTaskHndl                                            
20029254  bulbnumber                                                         
20029260  spiCC3200DMAscratchBuf                                             
20029268  g_ulDestinationIP                                                  
2002926c  id_len                                                             
20029270  noOfToken                                                          
20029274  philipsbulbid                                                      
20029280  simpleLink_mailbox                                                 
20029284  size                                                               
20029288  tokenList                                                          
2002928c  uiChannel                                                          
20029290  OptionVal                                                          
20029291  RxIrqCnt                                                           
20029292  myawstask_status                                                   
20029660  _ctypes_                                                           
20029761  ti_sysbios_knl_Clock_tickMode__C                                   
20029762  ti_sysbios_family_arm_m3_Hwi_Module__id__C                         
20029a4c  spiCC3200DMAHWAttrs                                                
20029ab4  SPICC3200DMA_fxnTable                                              
20029ca0  OpcodeTranslateTable                                               
20029cdc  _SlPolicySetCmdCtrl                                                
20029ce0  _SlPolicyGetCmdCtrl                                                
20029ce4  _SlProfileGetCmdCtrl                                               
20029ce8  _SlProfileDelCmdCtrl                                               
20029cec  _SlWlanGetNetworkListCtrl                                          
20029cf0  _SlRxFilterAddtCmdCtrl                                             
20029cf4  _SlRxFilterSetCmdCtrl                                              
20029cf8  _SlRxFilterGetCmdCtrl                                              
20029cfc  _SlSmartConfigStartCmdCtrl                                         
20029d00  _SlWlanSetModeCmdCtrl                                              
20029d04  _SlWlanCfgSetCmdCtrl                                               
20029d08  _SlWlanCfgGetCmdCtrl                                               
20029d18  ti_sysbios_knl_Task_Object__PARAMS__C                              
20029d8c  _SlActionLookupTable                                               
20029dc4  _SlFsOpenCmdCtrl                                                   
20029dc8  _SlFsCloseCmdCtrl                                                  
20029dcc  _SlFsReadCmdCtrl                                                   
20029dd0  _SlFsWriteCmdCtrl                                                  
20029dd4  _SlFsGetInfoCmdCtrl                                                
20029dd8  _SlFsDeleteCmdCtrl                                                 
20029dfc  iotClientConnectParamsDefault                                      
20029e34  _SlSockSocketCmdCtrl                                               
20029e38  _SlSockCloseCmdCtrl                                                
20029e3c  _SlRecvfomCmdCtrl                                                  
20029e40  _SlSendCmdCtrl                                                     
20029e44  _SlListenCmdCtrl                                                   
20029e48  _SlAcceptCmdCtrl                                                   
20029e4c  _SlRecvCmdCtrl                                                     
20029e50  _SlSetSockOptCmdCtrl                                               
20029e54  _SlGetSockOptCmdCtrl                                               
20029e58  _SlSelectCmdCtrl                                                   
20029e68  inPinTypes                                                         
20029e6e  outPinTypes                                                        
20029e76  outPinStrengths                                                    
20029e9c  ti_sysbios_knl_Mailbox_Object__PARAMS__C                           
20029ed0  ti_sysbios_family_arm_m3_Hwi_Object__PARAMS__C                     
20029f00  uartCC3200HWAttrs                                                  
20029f30  iotClientInitParamsDefault                                         
20029f86  ti_sysbios_family_arm_m3_Timer_Module__id__C                       
20029fd8  PowerCC3200_config                                                 
2002a000  UARTCC3200_fxnTable                                                
2002a028  _SlNetAppStartCtrl                                                 
2002a02c  _SlNetAppStopCtrl                                                  
2002a030  _SlGetServiceListeCtrl                                             
2002a034  _SlRegisterServiceCtrl                                             
2002a038  _SlGetHostByServiceCtrl                                            
2002a03c  _SlGetHostByNameCtrl                                               
2002a040  _SlNetAppSetCmdCtrl                                                
2002a044  _SlNetAppSendTokenValueCmdCtrl                                     
2002a048  _SlNetAppGetCmdCtrl                                                
2002a050  ti_sysbios_heaps_HeapMem_Module__FXNS__C                           
2002a078  SPI_config                                                         
2002a09c  UART_config                                                        
2002a0c0  UART_defaultParams                                                 
2002a0e4  RxMsgClassLUT                                                      
2002a108  ti_sysbios_gates_GateHwi_Module__FXNS__C                           
2002a12c  ti_sysbios_gates_GateMutex_Module__FXNS__C                         
2002a150  ti_sysbios_heaps_HeapMem_Object__PARAMS__C                         
2002a174  ti_sysbios_knl_Clock_Object__PARAMS__C                             
2002a198  ti_sysbios_knl_Semaphore_Object__PARAMS__C                         
2002a1fe  ti_sysbios_hal_Hwi_Module__id__C                                   
2002a200  SPI_defaultParams                                                  
2002a220  ti_sysbios_family_arm_m3_Hwi_Object__DESC__C                       
2002a240  ti_sysbios_gates_GateHwi_Object__DESC__C                           
2002a260  ti_sysbios_gates_GateMutex_Object__DESC__C                         
2002a280  ti_sysbios_heaps_HeapMem_Object__DESC__C                           
2002a2a0  ti_sysbios_knl_Clock_Object__DESC__C                               
2002a2c0  ti_sysbios_knl_Event_Object__DESC__C                               
2002a2e0  ti_sysbios_knl_Mailbox_Object__DESC__C                             
2002a300  ti_sysbios_knl_Queue_Object__DESC__C                               
2002a320  ti_sysbios_knl_Semaphore_Object__DESC__C                           
2002a340  ti_sysbios_knl_Task_Object__DESC__C                                
2002a360  xdc_runtime_Startup_sfxnTab__A                                     
2002a380  WiFi_config                                                        
2002a3b0  ti_sysbios_gates_GateHwi_Object__PARAMS__C                         
2002a3c8  ti_sysbios_gates_GateMutex_Object__PARAMS__C                       
2002a3e0  ti_sysbios_knl_Event_Object__PARAMS__C                             
2002a3f8  ti_sysbios_knl_Queue_Object__PARAMS__C                             
2002a410  GPIOCC3200_config                                                  
2002a424  _SlStopCmdCtrl                                                     
2002a428  _SlEventMaskSetCmdCtrl                                             
2002a42c  _SlEventMaskGetCmdCtrl                                             
2002a430  _SlDeviceGetCmdCtrl                                                
2002a434  _SlDeviceSetCmdCtrl                                                
2002a438  _SlPayloadByProtocolLUT                                            
2002a468  WiFiCC3200_fxnTable                                                
2002a488  xdc_runtime_Startup_sfxnRts__A                                     
2002a498  WiFi_defaultParams                                                 
2002a4b0  xdc_runtime_Startup_firstFxns__A                                   
2002a4bc  StartResponseLUT                                                   
2002a4d4  _SlNetCfgSetCmdCtrl                                                
2002a4d8  _SlNetCfgGetCmdCtrl                                                
2002a4dc  ti_sysbios_family_arm_m3_Hwi_excHookFuncs__A                       
2002a4e4  ti_sysbios_knl_Idle_funcList__A                                    
2002a4ec  ti_sysbios_knl_Idle_funcList__C                                    
2002a4f4  xdc_runtime_Startup_firstFxns__C                                   
2002a4fc  xdc_runtime_Startup_lastFxns__C                                    
2002a504  ti_sysbios_family_arm_m3_Hwi_E_NMI__C                              
2002a508  ti_sysbios_family_arm_m3_Hwi_E_alreadyDefined__C                   
2002a50c  ti_sysbios_family_arm_m3_Hwi_E_busFault__C                         
2002a510  ti_sysbios_family_arm_m3_Hwi_E_debugMon__C                         
2002a514  ti_sysbios_family_arm_m3_Hwi_E_hardFault__C                        
2002a518  ti_sysbios_family_arm_m3_Hwi_E_memFault__C                         
2002a51c  ti_sysbios_family_arm_m3_Hwi_E_noIsr__C                            
2002a520  ti_sysbios_family_arm_m3_Hwi_E_reserved__C                         
2002a524  ti_sysbios_family_arm_m3_Hwi_E_svCall__C                           
2002a528  ti_sysbios_family_arm_m3_Hwi_E_usageFault__C                       
2002a52c  ti_sysbios_family_arm_m3_Hwi_NUM_INTERRUPTS__C                     
2002a530  ti_sysbios_family_arm_m3_Hwi_Object__count__C                      
2002a534  ti_sysbios_family_arm_m3_Hwi_ccr__C                                
2002a538  ti_sysbios_family_arm_m3_Hwi_excHandlerFunc__C                     
2002a53c  ti_sysbios_family_arm_m3_Hwi_excHookFuncs__C                       
2002a540  ti_sysbios_family_arm_m3_Hwi_nullIsrFunc__C                        
2002a544  ti_sysbios_family_arm_m3_Hwi_priGroup__C                           
2002a548  ti_sysbios_family_arm_m3_TaskSupport_stackAlignment__C             
2002a54c  ti_sysbios_family_arm_m3_Timer_E_cannotSupport__C                  
2002a550  ti_sysbios_family_arm_m3_Timer_startupNeeded__C                    
2002a554  ti_sysbios_gates_GateMutex_Instance_State_sem__O                   
2002a558  ti_sysbios_hal_Hwi_E_stackOverflow__C                              
2002a55c  ti_sysbios_heaps_HeapMem_E_memory__C                               
2002a560  ti_sysbios_heaps_HeapMem_Module__gateObj__C                        
2002a564  ti_sysbios_heaps_HeapMem_Object__count__C                          
2002a568  ti_sysbios_heaps_HeapMem_reqAlign__C                               
2002a56c  ti_sysbios_knl_Clock_Module_State_clockQ__O                        
2002a570  ti_sysbios_knl_Clock_tickPeriod__C                                 
2002a574  ti_sysbios_knl_Event_Instance_State_pendQ__O                       
2002a578  ti_sysbios_knl_Mailbox_Instance_State_dataQue__O                   
2002a57c  ti_sysbios_knl_Mailbox_Instance_State_dataSem__O                   
2002a580  ti_sysbios_knl_Mailbox_Instance_State_freeQue__O                   
2002a584  ti_sysbios_knl_Mailbox_Instance_State_freeSem__O                   
2002a588  ti_sysbios_knl_Mailbox_Object__count__C                            
2002a58c  ti_sysbios_knl_Mailbox_maxTypeAlign__C                             
2002a590  ti_sysbios_knl_Semaphore_Instance_State_pendQ__O                   
2002a594  ti_sysbios_knl_Swi_Object__count__C                                
2002a598  ti_sysbios_knl_Task_E_spOutOfBounds__C                             
2002a59c  ti_sysbios_knl_Task_E_stackOverflow__C                             
2002a5a0  ti_sysbios_knl_Task_Module_State_inactiveQ__O                      
2002a5a4  ti_sysbios_knl_Task_Object__count__C                               
2002a5a8  ti_sysbios_knl_Task_allBlockedFunc__C                              
2002a5ac  ti_sysbios_knl_Task_defaultStackHeap__C                            
2002a5b0  ti_sysbios_knl_Task_defaultStackSize__C                            
2002a5b4  ti_sysbios_knl_Task_numConstructedTasks__C                         
2002a5b8  wiFiCC3200HWAttrs                                                  
2002a5bc  xdc_runtime_Assert_E_assertFailed__C                               
2002a5c0  xdc_runtime_Core_A_initializedParams__C                            
2002a5c4  xdc_runtime_Core_Module__diagsEnabled__C                           
2002a5c8  xdc_runtime_Core_Module__diagsIncluded__C                          
2002a5cc  xdc_runtime_Core_Module__diagsMask__C                              
2002a5d0  xdc_runtime_Error_E_memory__C                                      
2002a5d4  xdc_runtime_Error_Module__diagsEnabled__C                          
2002a5d8  xdc_runtime_Error_Module__diagsIncluded__C                         
2002a5dc  xdc_runtime_Error_Module__diagsMask__C                             
2002a5e0  xdc_runtime_Error_Module__loggerFxn8__C                            
2002a5e4  xdc_runtime_Error_Module__loggerObj__C                             
2002a5e8  xdc_runtime_Error_policyFxn__C                                     
2002a5ec  xdc_runtime_Error_raiseHook__C                                     
2002a5f0  xdc_runtime_IGateProvider_Interface__BASE__C                       
2002a5f4  xdc_runtime_IHeap_Interface__BASE__C                               
2002a5f8  xdc_runtime_IModule_Interface__BASE__C                             
2002a5fc  xdc_runtime_Log_L_error__C                                         
2002a600  xdc_runtime_Main_Module__diagsEnabled__C                           
2002a604  xdc_runtime_Main_Module__diagsIncluded__C                          
2002a608  xdc_runtime_Main_Module__diagsMask__C                              
2002a60c  xdc_runtime_Main_Module__loggerFxn2__C                             
2002a610  xdc_runtime_Main_Module__loggerFxn4__C                             
2002a614  xdc_runtime_Main_Module__loggerObj__C                              
2002a618  xdc_runtime_Memory_defaultHeapInstance__C                          
2002a61c  xdc_runtime_Startup_execImpl__C                                    
2002a620  xdc_runtime_Startup_maxPasses__C                                   
2002a624  xdc_runtime_Startup_sfxnRts__C                                     
2002a628  xdc_runtime_Startup_sfxnTab__C                                     
2002a62c  xdc_runtime_SysCallback_abortFxn__C                                
2002a630  xdc_runtime_SysCallback_exitFxn__C                                 
2002a634  xdc_runtime_SysCallback_flushFxn__C                                
2002a638  xdc_runtime_SysCallback_putchFxn__C                                
2002a63c  xdc_runtime_SysCallback_readyFxn__C                                
2002a640  xdc_runtime_System_Module__gateObj__C                              
2002a644  xdc_runtime_System_abortFxn__C                                     
2002a648  xdc_runtime_System_exitFxn__C                                      
2002a64c  xdc_runtime_System_extendFxn__C                                    
2002a650  xdc_runtime_System_maxAtexitHandlers__C                            
2002a654  xdc_runtime_Text_charTab__C                                        
2002a658  xdc_runtime_Text_nameEmpty__C                                      
2002a65c  xdc_runtime_Text_nameStatic__C                                     
2002a660  xdc_runtime_Text_nameUnknown__C                                    
2002a664  xdc_runtime_Text_nodeTab__A                                        
2002a668  xdc_runtime_Text_visitRopeFxn__C                                   
2002a66c  ti_sysbios_heaps_HeapMem_Module__id__C                             
2002a66e  ti_sysbios_knl_Task_Module__id__C                                  
2002a670  xdc_runtime_Core_Module__id__C                                     
2002a672  xdc_runtime_Error_Module__loggerDefined__C                         
2002a674  xdc_runtime_Error_maxDepth__C                                      
2002a676  xdc_runtime_Main_Module__id__C                                     
2002a678  xdc_runtime_Main_Module__loggerDefined__C                          
2002a67a  xdc_runtime_Memory_Module__id__C                                   
2002a67c  xdc_runtime_Text_charCnt__C                                        
2002a67e  xdc_runtime_Text_isLoaded__C                                       
2002a680  xdc_runtime_Text_registryModsLastId__C                             
2002a682  xdc_runtime_Text_unnamedModsLastId__C                              
2002a684  ti_sysbios_knl_Clock_tickSource__C                                 
2002a685  xdc_runtime_Error_policy__C                                        
2002a686  xdc_runtime_Text_charTab__A                                        
2002a688  ilen                                                               
2002a68c  deviceID                                                           
2002a69c  pubtopName                                                         
2002a6a0  philips_config                                                     
2002a6a4  philipsconfigstatus                                                
2002a6a8  devicestate                                                        
2002a6ac  HOST_PORT                                                          
2002a6b0  philipsgetbulbsstatus                                              
2002a6b4  updateotavariable                                                  
2002a6b8  enddevicestatus                                                    
2002a6c0  philipsipstatus                                                    
2002a6c4  belkinipstatus                                                     
2002a6c8  philipsget                                                         
2002a6cc  philipsbulbget                                                     
2002a6d0  philipssinglebulbget                                               
2002a6e4  HTTPStd_VER                                                        
2002a6e8  HTTPStd_GET                                                        
2002a6ec  HTTPStd_POST                                                       
2002a6f0  HTTPStd_HEAD                                                       
2002a6f4  HTTPStd_OPTIONS                                                    
2002a6f8  HTTPStd_PUT                                                        
2002a6fc  HTTPStd_DELETE                                                     
2002a700  HTTPStd_CONNECT                                                    
2002a704  HTTPStd_PATCH                                                      
2002a708  HTTPStd_CONTENT_TYPE_APPLET                                        
2002a70c  HTTPStd_CONTENT_TYPE_AU                                            
2002a710  HTTPStd_CONTENT_TYPE_CSS                                           
2002a714  HTTPStd_CONTENT_TYPE_DOC                                           
2002a718  HTTPStd_CONTENT_TYPE_GIF                                           
2002a71c  HTTPStd_CONTENT_TYPE_HTML                                          
2002a720  HTTPStd_CONTENT_TYPE_JPG                                           
2002a724  HTTPStd_CONTENT_TYPE_MPEG                                          
2002a728  HTTPStd_CONTENT_TYPE_PDF                                           
2002a72c  HTTPStd_CONTENT_TYPE_WAV                                           
2002a730  HTTPStd_CONTENT_TYPE_ZIP                                           
2002a734  HTTPStd_CONTENT_TYPE_PLAIN                                         
2002a738  HTTPStd_FIELD_NAME_ACCEPT                                          
2002a73c  HTTPStd_FIELD_NAME_ACCEPT_CHARSET                                  
2002a740  HTTPStd_FIELD_NAME_ACCEPT_ENCODING                                 
2002a744  HTTPStd_FIELD_NAME_ACCEPT_LANGUAGE                                 
2002a748  HTTPStd_FIELD_NAME_ACCEPT_RANGES                                   
2002a74c  HTTPStd_FIELD_NAME_AGE                                             
2002a750  HTTPStd_FIELD_NAME_ALLOW                                           
2002a754  HTTPStd_FIELD_NAME_AUTHORIZATION                                   
2002a758  HTTPStd_FIELD_NAME_CACHE_CONTROL                                   
2002a75c  HTTPStd_FIELD_NAME_CONNECTION                                      
2002a760  HTTPStd_FIELD_NAME_CONTENT_ENCODING                                
2002a764  HTTPStd_FIELD_NAME_CONTENT_LANGUAGE                                
2002a768  HTTPStd_FIELD_NAME_CONTENT_LENGTH                                  
2002a76c  HTTPStd_FIELD_NAME_CONTENT_LOCATION                                
2002a770  HTTPStd_FIELD_NAME_CONTENT_MD5                                     
2002a774  HTTPStd_FIELD_NAME_CONTENT_RANGE                                   
2002a778  HTTPStd_FIELD_NAME_CONTENT_TYPE                                    
2002a77c  HTTPStd_FIELD_NAME_COOKIE                                          
2002a780  HTTPStd_FIELD_NAME_DATE                                            
2002a784  HTTPStd_FIELD_NAME_ETAG                                            
2002a788  HTTPStd_FIELD_NAME_EXPECT                                          
2002a78c  HTTPStd_FIELD_NAME_EXPIRES                                         
2002a790  HTTPStd_FIELD_NAME_FROM                                            
2002a794  HTTPStd_FIELD_NAME_HOST                                            
2002a798  HTTPStd_FIELD_NAME_IF_MATCH                                        
2002a79c  HTTPStd_FIELD_NAME_IF_MODIFIED_SINCE                               
2002a7a0  HTTPStd_FIELD_NAME_IF_NONE_MATCH                                   
2002a7a4  HTTPStd_FIELD_NAME_IF_RANGE                                        
2002a7a8  HTTPStd_FIELD_NAME_IF_UNMODIFIED_SINCE                             
2002a7ac  HTTPStd_FIELD_NAME_LAST_MODIFIED                                   
2002a7b0  HTTPStd_FIELD_NAME_LOCATION                                        
2002a7b4  HTTPStd_FIELD_NAME_MAX_FORWARDS                                    
2002a7b8  HTTPStd_FIELD_NAME_ORIGIN                                          
2002a7bc  HTTPStd_FIELD_NAME_PRAGMA                                          
2002a7c0  HTTPStd_FIELD_NAME_PROXY_AUTHENTICATE                              
2002a7c4  HTTPStd_FIELD_NAME_PROXY_AUTHORIZATION                             
2002a7c8  HTTPStd_FIELD_NAME_RANGE                                           
2002a7cc  HTTPStd_FIELD_NAME_REFERER                                         
2002a7d0  HTTPStd_FIELD_NAME_RETRY_AFTER                                     
2002a7d4  HTTPStd_FIELD_NAME_SERVER                                          
2002a7d8  HTTPStd_FIELD_NAME_TE                                              
2002a7dc  HTTPStd_FIELD_NAME_TRAILER                                         
2002a7e0  HTTPStd_FIELD_NAME_TRANSFER_ENCODING                               
2002a7e4  HTTPStd_FIELD_NAME_UPGRADE                                         
2002a7e8  HTTPStd_FIELD_NAME_USER_AGENT                                      
2002a7ec  HTTPStd_FIELD_NAME_VARY                                            
2002a7f0  HTTPStd_FIELD_NAME_VIA                                             
2002a7f4  HTTPStd_FIELD_NAME_WWW_AUTHENTICATE                                
2002a7f8  HTTPStd_FIELD_NAME_WARNING                                         
2002a7fc  HTTPStd_FIELD_NAME_X_FORWARDED_FOR                                 
2002a800  HTTPStd_FIELD_NAME_SOAPACTION                                      
2002a804  g_ulStatus                                                         
2002a808  g_ulGatewayIP                                                      
2002a80c  bytesReceived                                                      
2002a810  g_uiPortNum                                                        
2002a814  g_ulPacketCount                                                    
2002a818  g_ucSimplelinkstarted                                              
2002a81c  g_ulIpAddr                                                         
2002a820  PWR1                                                               
2002a824  PWR2                                                               
2002a828  PWR3                                                               
2002a82c  PWR4                                                               
2002a830  i1                                                                 
2002a834  j1                                                                 
2002a838  k1                                                                 
2002a83c  l1                                                                 
2002a840  Phantom_var1                                                       
2002a844  Phantom_var2                                                       
2002a848  Phantom_var3                                                       
2002a84c  Phantom_var4                                                       
2002a850  Phantom_buff                                                       
2002a854  variable                                                           
2002a858  max1                                                               
2002a85c  max2                                                               
2002a860  max3                                                               
2002a864  max4                                                               
2002a868  SetCommitInt                                                       
2002a86c  r                                                                  
2002a870  philipsgetstatus                                                   
2002a874  port                                                               
2002a878  publishCount                                                       
2002a87c  pw                                                                 
2002a880  ch                                                                 
2002a884  status                                                             
2002a88c  ti_sysbios_family_arm_cc32xx_Seconds_Module__state__V              
2002a894  ti_sysbios_family_arm_m3_Hwi_Module__root__V                       
2002a89c  ti_sysbios_family_arm_m3_Hwi_Object__table__V                      
2002a8b4  ti_sysbios_family_arm_m3_Hwi_Module_State_0_excActive__A           
2002a8b8  ti_sysbios_family_arm_m3_Hwi_Module_State_0_excContext__A          
2002a8bc  ti_sysbios_family_arm_m3_Hwi_Module_State_0_excStack__A            
2002a8c0  ti_sysbios_family_arm_m3_Timer_Module__root__V                     
2002a8c8  ti_sysbios_family_arm_m3_Timer_Module__state__V                    
2002a8d4  ti_sysbios_gates_GateHwi_Module__root__V                           
2002a8dc  ti_sysbios_gates_GateHwi_Object__table__V                          
2002a8e0  ti_sysbios_gates_GateMutex_Module__root__V                         
2002a8e8  ti_sysbios_hal_Hwi_Module__root__V                                 
2002a8f0  ti_sysbios_heaps_HeapMem_Module__root__V                           
2002a8f8  ti_sysbios_heaps_HeapMem_Object__table__V                          
2002a910  ti_sysbios_knl_Clock_Module__root__V                               
2002a918  ti_sysbios_knl_Event_Module__root__V                               
2002a920  ti_sysbios_knl_Mailbox_Module__root__V                             
2002a928  ti_sysbios_knl_Queue_Module__root__V                               
2002a930  ti_sysbios_knl_Semaphore_Module__root__V                           
2002a938  ti_sysbios_knl_Swi_Module__root__V                                 
2002a940  ti_sysbios_knl_Swi_Module__state__V                                
2002a95c  ti_sysbios_knl_Task_Module__root__V                                
2002a964  ti_sysbios_knl_Task_Module_State_0_readyQ__A                       
2002a984  ti_sysbios_knl_Task_Module_State_0_idleTask__A                     
2002a988  xdc_runtime_Error_Module__state__V                                 
2002a98c  xdc_runtime_Memory_Module__state__V                                
2002a990  xdc_runtime_Registry_Module__state__V                              
2002a998  xdc_runtime_Startup_Module__state__V                               
2002a9a0  xdc_runtime_System_Module_State_0_atexitHandlers__A                
2002a9a8  xdc_runtime_System_Module__state__V                                
2002a9b0  xdc_runtime_Text_Module__state__V                                  
2002a9b8  __xdc__init__addr                                                  
2002a9bc  HostAddress                                                        
2002aabc  _ftable                                                            
2002ad30  _Denorm                                                            
2002ad40  _Eps                                                               
2002ad50  _Hugeval                                                           
2002ad60  _Inf                                                               
2002ad70  _Nan                                                               
2002ad80  _Snan                                                              
2002ad90  _Rteps                                                             
2002ada0  _Xbig                                                              
2002ada8  _Zero                                                              
2002adb0  ti_sysbios_knl_Swi_Module_State_0_readyQ__A                        
2002ae30  PowerCC3200_module                                                 
2002ae84  ti_sysbios_knl_Task_Object__table__V                               
2002aed0  ti_sysbios_knl_Task_Module__state__V                               
2002af14  ti_sysbios_gates_GateMutex_Object__table__V                        
2002af4c  ti_sysbios_family_arm_m3_Hwi_Module__state__V                      
2002afb0  ti_sysbios_family_arm_m3_Timer_Object__table__V                    
2002afe0  ti_sysbios_knl_Swi_Object__table__V                                
2002b010  ti_sysbios_knl_Clock_Module__state__V                              
2002b060  ti_sysbios_BIOS_Module__state__V                                   
2002b084  g_H2NSyncPattern                                                   
2002b08c  g_H2NCnysPattern                                                   
2002b094  g_pCB                                                              
2002b098  pPingCallBackFunc                                                  
2002b09c  gFirstCmdMode                                                      
2002b0a4  gpioPinConfigs                                                     
2002b0b0  gpioCallbackFunctions                                              
2002b0d0  NTP_HOSTNAME                                                       
2002b0e4  g_ulStatus1                                                        
2002b0f0  smarttime                                                          
2002b0f4  __TI_ft_end                                                        
2002b0f8  __aeabi_stdin                                                      
2002b0fc  __aeabi_stdout                                                     
2002b100  __aeabi_stderr                                                     
2002b104  _tz                                                                
2002b11c  _lock                                                              
2002b120  _unlock                                                            
2002b124  __TI_cleanup_ptr                                                   
2002b128  __TI_dtors_ptr                                                     
2002b12c  _Fenv                                                              
2002b130  _Tls_setup__Fenv                                                   
2002b144  g_ConsecutiveNetAccessNetErrors                                    
2002b148  _Errno                                                             
2002b150  main_func_sp                                                       
2002b158  __stack                                                            
2002b558  __STACK_END                                                        
2002b558  __TI_static_base__                                                 
2002ba8c  __TI_Handler_Table_Base                                            
2002ba98  __TI_Handler_Table_Limit                                           
2002baa0  __TI_CINIT_Base                                                    
2002bab0  __TI_CINIT_Limit                                                   
e000e000  ti_sysbios_family_arm_m3_Hwi_nvic                                  
ffffffff  __binit__                                                          
ffffffff  __c_args__                                                         
ffffffff  binit                                                              
UNDEFED   SHT$$INIT_ARRAY$$Base                                              
UNDEFED   SHT$$INIT_ARRAY$$Limit                                             

[1383 symbols]
